
main.o:     file format elf32-i386


Disassembly of section .init:

0804870c <_init>:
 804870c:	53                   	push   %ebx
 804870d:	83 ec 08             	sub    $0x8,%esp
 8048710:	e8 bb 01 00 00       	call   80488d0 <__x86.get_pc_thunk.bx>
 8048715:	81 c3 eb 68 00 00    	add    $0x68eb,%ebx
 804871b:	8b 83 fc ff ff ff    	mov    -0x4(%ebx),%eax
 8048721:	85 c0                	test   %eax,%eax
 8048723:	74 05                	je     804872a <_init+0x1e>
 8048725:	e8 66 01 00 00       	call   8048890 <_Unwind_Resume@plt+0x10>
 804872a:	83 c4 08             	add    $0x8,%esp
 804872d:	5b                   	pop    %ebx
 804872e:	c3                   	ret    

Disassembly of section .plt:

08048730 <expf@plt-0x10>:
 8048730:	ff 35 04 f0 04 08    	pushl  0x804f004
 8048736:	ff 25 08 f0 04 08    	jmp    *0x804f008
 804873c:	00 00                	add    %al,(%eax)
	...

08048740 <expf@plt>:
 8048740:	ff 25 0c f0 04 08    	jmp    *0x804f00c
 8048746:	68 00 00 00 00       	push   $0x0
 804874b:	e9 e0 ff ff ff       	jmp    8048730 <_init+0x24>

08048750 <_ZSt20__throw_length_errorPKc@plt>:
 8048750:	ff 25 10 f0 04 08    	jmp    *0x804f010
 8048756:	68 08 00 00 00       	push   $0x8
 804875b:	e9 d0 ff ff ff       	jmp    8048730 <_init+0x24>

08048760 <__cxa_atexit@plt>:
 8048760:	ff 25 14 f0 04 08    	jmp    *0x804f014
 8048766:	68 10 00 00 00       	push   $0x10
 804876b:	e9 c0 ff ff ff       	jmp    8048730 <_init+0x24>

08048770 <_ZdlPv@plt>:
 8048770:	ff 25 18 f0 04 08    	jmp    *0x804f018
 8048776:	68 18 00 00 00       	push   $0x18
 804877b:	e9 b0 ff ff ff       	jmp    8048730 <_init+0x24>

08048780 <calloc@plt>:
 8048780:	ff 25 1c f0 04 08    	jmp    *0x804f01c
 8048786:	68 20 00 00 00       	push   $0x20
 804878b:	e9 a0 ff ff ff       	jmp    8048730 <_init+0x24>

08048790 <__cxa_rethrow@plt>:
 8048790:	ff 25 20 f0 04 08    	jmp    *0x804f020
 8048796:	68 28 00 00 00       	push   $0x28
 804879b:	e9 90 ff ff ff       	jmp    8048730 <_init+0x24>

080487a0 <putchar@plt>:
 80487a0:	ff 25 24 f0 04 08    	jmp    *0x804f024
 80487a6:	68 30 00 00 00       	push   $0x30
 80487ab:	e9 80 ff ff ff       	jmp    8048730 <_init+0x24>

080487b0 <__libc_start_main@plt>:
 80487b0:	ff 25 28 f0 04 08    	jmp    *0x804f028
 80487b6:	68 38 00 00 00       	push   $0x38
 80487bb:	e9 70 ff ff ff       	jmp    8048730 <_init+0x24>

080487c0 <fclose@plt>:
 80487c0:	ff 25 2c f0 04 08    	jmp    *0x804f02c
 80487c6:	68 40 00 00 00       	push   $0x40
 80487cb:	e9 60 ff ff ff       	jmp    8048730 <_init+0x24>

080487d0 <fopen@plt>:
 80487d0:	ff 25 30 f0 04 08    	jmp    *0x804f030
 80487d6:	68 48 00 00 00       	push   $0x48
 80487db:	e9 50 ff ff ff       	jmp    8048730 <_init+0x24>

080487e0 <printf@plt>:
 80487e0:	ff 25 34 f0 04 08    	jmp    *0x804f034
 80487e6:	68 50 00 00 00       	push   $0x50
 80487eb:	e9 40 ff ff ff       	jmp    8048730 <_init+0x24>

080487f0 <_Znwj@plt>:
 80487f0:	ff 25 38 f0 04 08    	jmp    *0x804f038
 80487f6:	68 58 00 00 00       	push   $0x58
 80487fb:	e9 30 ff ff ff       	jmp    8048730 <_init+0x24>

08048800 <__stack_chk_fail@plt>:
 8048800:	ff 25 3c f0 04 08    	jmp    *0x804f03c
 8048806:	68 60 00 00 00       	push   $0x60
 804880b:	e9 20 ff ff ff       	jmp    8048730 <_init+0x24>

08048810 <memmove@plt>:
 8048810:	ff 25 40 f0 04 08    	jmp    *0x804f040
 8048816:	68 68 00 00 00       	push   $0x68
 804881b:	e9 10 ff ff ff       	jmp    8048730 <_init+0x24>

08048820 <puts@plt>:
 8048820:	ff 25 44 f0 04 08    	jmp    *0x804f044
 8048826:	68 70 00 00 00       	push   $0x70
 804882b:	e9 00 ff ff ff       	jmp    8048730 <_init+0x24>

08048830 <__cxa_end_catch@plt>:
 8048830:	ff 25 48 f0 04 08    	jmp    *0x804f048
 8048836:	68 78 00 00 00       	push   $0x78
 804883b:	e9 f0 fe ff ff       	jmp    8048730 <_init+0x24>

08048840 <_ZSt17__throw_bad_allocv@plt>:
 8048840:	ff 25 4c f0 04 08    	jmp    *0x804f04c
 8048846:	68 80 00 00 00       	push   $0x80
 804884b:	e9 e0 fe ff ff       	jmp    8048730 <_init+0x24>

08048850 <__cxa_begin_catch@plt>:
 8048850:	ff 25 50 f0 04 08    	jmp    *0x804f050
 8048856:	68 88 00 00 00       	push   $0x88
 804885b:	e9 d0 fe ff ff       	jmp    8048730 <_init+0x24>

08048860 <fread@plt>:
 8048860:	ff 25 54 f0 04 08    	jmp    *0x804f054
 8048866:	68 90 00 00 00       	push   $0x90
 804886b:	e9 c0 fe ff ff       	jmp    8048730 <_init+0x24>

08048870 <__gxx_personality_v0@plt>:
 8048870:	ff 25 58 f0 04 08    	jmp    *0x804f058
 8048876:	68 98 00 00 00       	push   $0x98
 804887b:	e9 b0 fe ff ff       	jmp    8048730 <_init+0x24>

08048880 <_Unwind_Resume@plt>:
 8048880:	ff 25 5c f0 04 08    	jmp    *0x804f05c
 8048886:	68 a0 00 00 00       	push   $0xa0
 804888b:	e9 a0 fe ff ff       	jmp    8048730 <_init+0x24>

Disassembly of section .plt.got:

08048890 <.plt.got>:
 8048890:	ff 25 fc ef 04 08    	jmp    *0x804effc
 8048896:	66 90                	xchg   %ax,%ax

Disassembly of section .text:

080488a0 <_start>:
 80488a0:	31 ed                	xor    %ebp,%ebp
 80488a2:	5e                   	pop    %esi
 80488a3:	89 e1                	mov    %esp,%ecx
 80488a5:	83 e4 f0             	and    $0xfffffff0,%esp
 80488a8:	50                   	push   %eax
 80488a9:	54                   	push   %esp
 80488aa:	52                   	push   %edx
 80488ab:	68 70 bb 04 08       	push   $0x804bb70
 80488b0:	68 10 bb 04 08       	push   $0x804bb10
 80488b5:	51                   	push   %ecx
 80488b6:	56                   	push   %esi
 80488b7:	68 9c 9f 04 08       	push   $0x8049f9c
 80488bc:	e8 ef fe ff ff       	call   80487b0 <__libc_start_main@plt>
 80488c1:	f4                   	hlt    
 80488c2:	66 90                	xchg   %ax,%ax
 80488c4:	66 90                	xchg   %ax,%ax
 80488c6:	66 90                	xchg   %ax,%ax
 80488c8:	66 90                	xchg   %ax,%ax
 80488ca:	66 90                	xchg   %ax,%ax
 80488cc:	66 90                	xchg   %ax,%ax
 80488ce:	66 90                	xchg   %ax,%ax

080488d0 <__x86.get_pc_thunk.bx>:
 80488d0:	8b 1c 24             	mov    (%esp),%ebx
 80488d3:	c3                   	ret    
 80488d4:	66 90                	xchg   %ax,%ax
 80488d6:	66 90                	xchg   %ax,%ax
 80488d8:	66 90                	xchg   %ax,%ax
 80488da:	66 90                	xchg   %ax,%ax
 80488dc:	66 90                	xchg   %ax,%ax
 80488de:	66 90                	xchg   %ax,%ax

080488e0 <deregister_tm_clones>:
 80488e0:	b8 6b f0 04 08       	mov    $0x804f06b,%eax
 80488e5:	2d 68 f0 04 08       	sub    $0x804f068,%eax
 80488ea:	83 f8 06             	cmp    $0x6,%eax
 80488ed:	76 1a                	jbe    8048909 <deregister_tm_clones+0x29>
 80488ef:	b8 00 00 00 00       	mov    $0x0,%eax
 80488f4:	85 c0                	test   %eax,%eax
 80488f6:	74 11                	je     8048909 <deregister_tm_clones+0x29>
 80488f8:	55                   	push   %ebp
 80488f9:	89 e5                	mov    %esp,%ebp
 80488fb:	83 ec 14             	sub    $0x14,%esp
 80488fe:	68 68 f0 04 08       	push   $0x804f068
 8048903:	ff d0                	call   *%eax
 8048905:	83 c4 10             	add    $0x10,%esp
 8048908:	c9                   	leave  
 8048909:	f3 c3                	repz ret 
 804890b:	90                   	nop
 804890c:	8d 74 26 00          	lea    0x0(%esi,%eiz,1),%esi

08048910 <register_tm_clones>:
 8048910:	b8 68 f0 04 08       	mov    $0x804f068,%eax
 8048915:	2d 68 f0 04 08       	sub    $0x804f068,%eax
 804891a:	c1 f8 02             	sar    $0x2,%eax
 804891d:	89 c2                	mov    %eax,%edx
 804891f:	c1 ea 1f             	shr    $0x1f,%edx
 8048922:	01 d0                	add    %edx,%eax
 8048924:	d1 f8                	sar    %eax
 8048926:	74 1b                	je     8048943 <register_tm_clones+0x33>
 8048928:	ba 00 00 00 00       	mov    $0x0,%edx
 804892d:	85 d2                	test   %edx,%edx
 804892f:	74 12                	je     8048943 <register_tm_clones+0x33>
 8048931:	55                   	push   %ebp
 8048932:	89 e5                	mov    %esp,%ebp
 8048934:	83 ec 10             	sub    $0x10,%esp
 8048937:	50                   	push   %eax
 8048938:	68 68 f0 04 08       	push   $0x804f068
 804893d:	ff d2                	call   *%edx
 804893f:	83 c4 10             	add    $0x10,%esp
 8048942:	c9                   	leave  
 8048943:	f3 c3                	repz ret 
 8048945:	8d 74 26 00          	lea    0x0(%esi,%eiz,1),%esi
 8048949:	8d bc 27 00 00 00 00 	lea    0x0(%edi,%eiz,1),%edi

08048950 <__do_global_dtors_aux>:
 8048950:	80 3d 68 f0 04 08 00 	cmpb   $0x0,0x804f068
 8048957:	75 13                	jne    804896c <__do_global_dtors_aux+0x1c>
 8048959:	55                   	push   %ebp
 804895a:	89 e5                	mov    %esp,%ebp
 804895c:	83 ec 08             	sub    $0x8,%esp
 804895f:	e8 7c ff ff ff       	call   80488e0 <deregister_tm_clones>
 8048964:	c6 05 68 f0 04 08 01 	movb   $0x1,0x804f068
 804896b:	c9                   	leave  
 804896c:	f3 c3                	repz ret 
 804896e:	66 90                	xchg   %ax,%ax

08048970 <frame_dummy>:
 8048970:	b8 f8 ee 04 08       	mov    $0x804eef8,%eax
 8048975:	8b 10                	mov    (%eax),%edx
 8048977:	85 d2                	test   %edx,%edx
 8048979:	75 05                	jne    8048980 <frame_dummy+0x10>
 804897b:	eb 93                	jmp    8048910 <register_tm_clones>
 804897d:	8d 76 00             	lea    0x0(%esi),%esi
 8048980:	ba 00 00 00 00       	mov    $0x0,%edx
 8048985:	85 d2                	test   %edx,%edx
 8048987:	74 f2                	je     804897b <frame_dummy+0xb>
 8048989:	55                   	push   %ebp
 804898a:	89 e5                	mov    %esp,%ebp
 804898c:	83 ec 14             	sub    $0x14,%esp
 804898f:	50                   	push   %eax
 8048990:	ff d2                	call   *%edx
 8048992:	83 c4 10             	add    $0x10,%esp
 8048995:	c9                   	leave  
 8048996:	e9 75 ff ff ff       	jmp    8048910 <register_tm_clones>

0804899b <_Z11finish_taskv>:
 804899b:	55                   	push   %ebp
 804899c:	89 e5                	mov    %esp,%ebp
 804899e:	90                   	nop
 804899f:	5d                   	pop    %ebp
 80489a0:	c3                   	ret    

080489a1 <_ZL12chronos_initv>:
 80489a1:	55                   	push   %ebp
 80489a2:	89 e5                	mov    %esp,%ebp
 80489a4:	90                   	nop
 80489a5:	5d                   	pop    %ebp
 80489a6:	c3                   	ret    

080489a7 <_Z14undo_log_writePjj>:
 80489a7:	55                   	push   %ebp
 80489a8:	89 e5                	mov    %esp,%ebp
 80489aa:	90                   	nop
 80489ab:	5d                   	pop    %ebp
 80489ac:	c3                   	ret    

080489ad <_Z13enq_task_arg4jjjjjjj>:
 80489ad:	55                   	push   %ebp
 80489ae:	89 e5                	mov    %esp,%ebp
 80489b0:	57                   	push   %edi
 80489b1:	56                   	push   %esi
 80489b2:	53                   	push   %ebx
 80489b3:	83 ec 2c             	sub    $0x2c,%esp
 80489b6:	65 a1 14 00 00 00    	mov    %gs:0x14,%eax
 80489bc:	89 45 e4             	mov    %eax,-0x1c(%ebp)
 80489bf:	31 c0                	xor    %eax,%eax
 80489c1:	8b 45 0c             	mov    0xc(%ebp),%eax
 80489c4:	89 45 c8             	mov    %eax,-0x38(%ebp)
 80489c7:	8b 45 08             	mov    0x8(%ebp),%eax
 80489ca:	89 45 cc             	mov    %eax,-0x34(%ebp)
 80489cd:	8b 45 10             	mov    0x10(%ebp),%eax
 80489d0:	89 45 d0             	mov    %eax,-0x30(%ebp)
 80489d3:	8b 45 14             	mov    0x14(%ebp),%eax
 80489d6:	89 45 d4             	mov    %eax,-0x2c(%ebp)
 80489d9:	8b 45 18             	mov    0x18(%ebp),%eax
 80489dc:	89 45 d8             	mov    %eax,-0x28(%ebp)
 80489df:	8b 45 1c             	mov    0x1c(%ebp),%eax
 80489e2:	89 45 dc             	mov    %eax,-0x24(%ebp)
 80489e5:	8b 45 20             	mov    0x20(%ebp),%eax
 80489e8:	89 45 e0             	mov    %eax,-0x20(%ebp)
 80489eb:	8b 7d e0             	mov    -0x20(%ebp),%edi
 80489ee:	8b 75 dc             	mov    -0x24(%ebp),%esi
 80489f1:	8b 5d d8             	mov    -0x28(%ebp),%ebx
 80489f4:	8b 4d d4             	mov    -0x2c(%ebp),%ecx
 80489f7:	8b 55 cc             	mov    -0x34(%ebp),%edx
 80489fa:	8b 45 c8             	mov    -0x38(%ebp),%eax
 80489fd:	57                   	push   %edi
 80489fe:	56                   	push   %esi
 80489ff:	53                   	push   %ebx
 8048a00:	51                   	push   %ecx
 8048a01:	ff 75 10             	pushl  0x10(%ebp)
 8048a04:	52                   	push   %edx
 8048a05:	50                   	push   %eax
 8048a06:	68 94 bb 04 08       	push   $0x804bb94
 8048a0b:	e8 d0 fd ff ff       	call   80487e0 <printf@plt>
 8048a10:	83 c4 20             	add    $0x20,%esp
 8048a13:	83 ec 08             	sub    $0x8,%esp
 8048a16:	8d 45 c8             	lea    -0x38(%ebp),%eax
 8048a19:	50                   	push   %eax
 8048a1a:	68 6c f0 04 08       	push   $0x804f06c
 8048a1f:	e8 c6 19 00 00       	call   804a3ea <_ZNSt14priority_queueI4taskSt6vectorIS0_SaIS0_EE12compare_taskE4pushERKS0_>
 8048a24:	83 c4 10             	add    $0x10,%esp
 8048a27:	90                   	nop
 8048a28:	8b 45 e4             	mov    -0x1c(%ebp),%eax
 8048a2b:	65 33 05 14 00 00 00 	xor    %gs:0x14,%eax
 8048a32:	74 05                	je     8048a39 <_Z13enq_task_arg4jjjjjjj+0x8c>
 8048a34:	e8 c7 fd ff ff       	call   8048800 <__stack_chk_fail@plt>
 8048a39:	8d 65 f4             	lea    -0xc(%ebp),%esp
 8048a3c:	5b                   	pop    %ebx
 8048a3d:	5e                   	pop    %esi
 8048a3e:	5f                   	pop    %edi
 8048a3f:	5d                   	pop    %ebp
 8048a40:	c3                   	ret    

08048a41 <_Z13enq_task_arg0jjj>:
 8048a41:	55                   	push   %ebp
 8048a42:	89 e5                	mov    %esp,%ebp
 8048a44:	83 ec 08             	sub    $0x8,%esp
 8048a47:	83 ec 04             	sub    $0x4,%esp
 8048a4a:	6a 00                	push   $0x0
 8048a4c:	6a 00                	push   $0x0
 8048a4e:	6a 00                	push   $0x0
 8048a50:	6a 00                	push   $0x0
 8048a52:	ff 75 10             	pushl  0x10(%ebp)
 8048a55:	ff 75 0c             	pushl  0xc(%ebp)
 8048a58:	ff 75 08             	pushl  0x8(%ebp)
 8048a5b:	e8 4d ff ff ff       	call   80489ad <_Z13enq_task_arg4jjjjjjj>
 8048a60:	83 c4 20             	add    $0x20,%esp
 8048a63:	90                   	nop
 8048a64:	c9                   	leave  
 8048a65:	c3                   	ret    

08048a66 <_Z13enq_task_arg1jjjj>:
 8048a66:	55                   	push   %ebp
 8048a67:	89 e5                	mov    %esp,%ebp
 8048a69:	83 ec 08             	sub    $0x8,%esp
 8048a6c:	83 ec 04             	sub    $0x4,%esp
 8048a6f:	6a 00                	push   $0x0
 8048a71:	6a 00                	push   $0x0
 8048a73:	6a 00                	push   $0x0
 8048a75:	ff 75 14             	pushl  0x14(%ebp)
 8048a78:	ff 75 10             	pushl  0x10(%ebp)
 8048a7b:	ff 75 0c             	pushl  0xc(%ebp)
 8048a7e:	ff 75 08             	pushl  0x8(%ebp)
 8048a81:	e8 27 ff ff ff       	call   80489ad <_Z13enq_task_arg4jjjjjjj>
 8048a86:	83 c4 20             	add    $0x20,%esp
 8048a89:	90                   	nop
 8048a8a:	c9                   	leave  
 8048a8b:	c3                   	ret    

08048a8c <_Z13enq_task_arg2jjjjj>:
 8048a8c:	55                   	push   %ebp
 8048a8d:	89 e5                	mov    %esp,%ebp
 8048a8f:	83 ec 08             	sub    $0x8,%esp
 8048a92:	83 ec 04             	sub    $0x4,%esp
 8048a95:	6a 00                	push   $0x0
 8048a97:	6a 00                	push   $0x0
 8048a99:	ff 75 18             	pushl  0x18(%ebp)
 8048a9c:	ff 75 14             	pushl  0x14(%ebp)
 8048a9f:	ff 75 10             	pushl  0x10(%ebp)
 8048aa2:	ff 75 0c             	pushl  0xc(%ebp)
 8048aa5:	ff 75 08             	pushl  0x8(%ebp)
 8048aa8:	e8 00 ff ff ff       	call   80489ad <_Z13enq_task_arg4jjjjjjj>
 8048aad:	83 c4 20             	add    $0x20,%esp
 8048ab0:	90                   	nop
 8048ab1:	c9                   	leave  
 8048ab2:	c3                   	ret    

08048ab3 <_Z13enq_task_arg3jjjjjj>:
 8048ab3:	55                   	push   %ebp
 8048ab4:	89 e5                	mov    %esp,%ebp
 8048ab6:	83 ec 08             	sub    $0x8,%esp
 8048ab9:	83 ec 04             	sub    $0x4,%esp
 8048abc:	6a 00                	push   $0x0
 8048abe:	ff 75 1c             	pushl  0x1c(%ebp)
 8048ac1:	ff 75 18             	pushl  0x18(%ebp)
 8048ac4:	ff 75 14             	pushl  0x14(%ebp)
 8048ac7:	ff 75 10             	pushl  0x10(%ebp)
 8048aca:	ff 75 0c             	pushl  0xc(%ebp)
 8048acd:	ff 75 08             	pushl  0x8(%ebp)
 8048ad0:	e8 d8 fe ff ff       	call   80489ad <_Z13enq_task_arg4jjjjjjj>
 8048ad5:	83 c4 20             	add    $0x20,%esp
 8048ad8:	90                   	nop
 8048ad9:	c9                   	leave  
 8048ada:	c3                   	ret    

08048adb <_Z8deq_taskv>:
 8048adb:	55                   	push   %ebp
 8048adc:	89 e5                	mov    %esp,%ebp
 8048ade:	57                   	push   %edi
 8048adf:	56                   	push   %esi
 8048ae0:	53                   	push   %ebx
 8048ae1:	83 ec 3c             	sub    $0x3c,%esp
 8048ae4:	65 a1 14 00 00 00    	mov    %gs:0x14,%eax
 8048aea:	89 45 e4             	mov    %eax,-0x1c(%ebp)
 8048aed:	31 c0                	xor    %eax,%eax
 8048aef:	83 ec 0c             	sub    $0xc,%esp
 8048af2:	68 6c f0 04 08       	push   $0x804f06c
 8048af7:	e8 6e 19 00 00       	call   804a46a <_ZNKSt14priority_queueI4taskSt6vectorIS0_SaIS0_EE12compare_taskE3topEv>
 8048afc:	83 c4 10             	add    $0x10,%esp
 8048aff:	8b 10                	mov    (%eax),%edx
 8048b01:	89 55 c8             	mov    %edx,-0x38(%ebp)
 8048b04:	8b 50 04             	mov    0x4(%eax),%edx
 8048b07:	89 55 cc             	mov    %edx,-0x34(%ebp)
 8048b0a:	8b 50 08             	mov    0x8(%eax),%edx
 8048b0d:	89 55 d0             	mov    %edx,-0x30(%ebp)
 8048b10:	8b 50 0c             	mov    0xc(%eax),%edx
 8048b13:	89 55 d4             	mov    %edx,-0x2c(%ebp)
 8048b16:	8b 50 10             	mov    0x10(%eax),%edx
 8048b19:	89 55 d8             	mov    %edx,-0x28(%ebp)
 8048b1c:	8b 50 14             	mov    0x14(%eax),%edx
 8048b1f:	89 55 dc             	mov    %edx,-0x24(%ebp)
 8048b22:	8b 40 18             	mov    0x18(%eax),%eax
 8048b25:	89 45 e0             	mov    %eax,-0x20(%ebp)
 8048b28:	8b 45 e0             	mov    -0x20(%ebp),%eax
 8048b2b:	89 45 c4             	mov    %eax,-0x3c(%ebp)
 8048b2e:	8b 7d dc             	mov    -0x24(%ebp),%edi
 8048b31:	8b 75 d8             	mov    -0x28(%ebp),%esi
 8048b34:	8b 5d d4             	mov    -0x2c(%ebp),%ebx
 8048b37:	8b 4d d0             	mov    -0x30(%ebp),%ecx
 8048b3a:	8b 55 cc             	mov    -0x34(%ebp),%edx
 8048b3d:	8b 45 c8             	mov    -0x38(%ebp),%eax
 8048b40:	ff 75 c4             	pushl  -0x3c(%ebp)
 8048b43:	57                   	push   %edi
 8048b44:	56                   	push   %esi
 8048b45:	53                   	push   %ebx
 8048b46:	51                   	push   %ecx
 8048b47:	52                   	push   %edx
 8048b48:	50                   	push   %eax
 8048b49:	68 d4 bb 04 08       	push   $0x804bbd4
 8048b4e:	e8 8d fc ff ff       	call   80487e0 <printf@plt>
 8048b53:	83 c4 20             	add    $0x20,%esp
 8048b56:	83 ec 0c             	sub    $0xc,%esp
 8048b59:	68 6c f0 04 08       	push   $0x804f06c
 8048b5e:	e8 1f 19 00 00       	call   804a482 <_ZNSt14priority_queueI4taskSt6vectorIS0_SaIS0_EE12compare_taskE3popEv>
 8048b63:	83 c4 10             	add    $0x10,%esp
 8048b66:	90                   	nop
 8048b67:	8b 45 e4             	mov    -0x1c(%ebp),%eax
 8048b6a:	65 33 05 14 00 00 00 	xor    %gs:0x14,%eax
 8048b71:	74 05                	je     8048b78 <_Z8deq_taskv+0x9d>
 8048b73:	e8 88 fc ff ff       	call   8048800 <__stack_chk_fail@plt>
 8048b78:	8d 65 f4             	lea    -0xc(%ebp),%esp
 8048b7b:	5b                   	pop    %ebx
 8048b7c:	5e                   	pop    %esi
 8048b7d:	5f                   	pop    %edi
 8048b7e:	5d                   	pop    %ebp
 8048b7f:	c3                   	ret    

08048b80 <_Z13deq_task_arg0PjS_S_>:
 8048b80:	55                   	push   %ebp
 8048b81:	89 e5                	mov    %esp,%ebp
 8048b83:	83 ec 38             	sub    $0x38,%esp
 8048b86:	8b 45 08             	mov    0x8(%ebp),%eax
 8048b89:	89 45 d4             	mov    %eax,-0x2c(%ebp)
 8048b8c:	8b 45 0c             	mov    0xc(%ebp),%eax
 8048b8f:	89 45 d0             	mov    %eax,-0x30(%ebp)
 8048b92:	8b 45 10             	mov    0x10(%ebp),%eax
 8048b95:	89 45 cc             	mov    %eax,-0x34(%ebp)
 8048b98:	65 a1 14 00 00 00    	mov    %gs:0x14,%eax
 8048b9e:	89 45 f4             	mov    %eax,-0xc(%ebp)
 8048ba1:	31 c0                	xor    %eax,%eax
 8048ba3:	83 ec 0c             	sub    $0xc,%esp
 8048ba6:	68 6c f0 04 08       	push   $0x804f06c
 8048bab:	e8 48 19 00 00       	call   804a4f8 <_ZNKSt14priority_queueI4taskSt6vectorIS0_SaIS0_EE12compare_taskE5emptyEv>
 8048bb0:	83 c4 10             	add    $0x10,%esp
 8048bb3:	84 c0                	test   %al,%al
 8048bb5:	74 0b                	je     8048bc2 <_Z13deq_task_arg0PjS_S_+0x42>
 8048bb7:	8b 45 d4             	mov    -0x2c(%ebp),%eax
 8048bba:	c7 00 ff ff ff ff    	movl   $0xffffffff,(%eax)
 8048bc0:	eb 56                	jmp    8048c18 <_Z13deq_task_arg0PjS_S_+0x98>
 8048bc2:	83 ec 0c             	sub    $0xc,%esp
 8048bc5:	68 6c f0 04 08       	push   $0x804f06c
 8048bca:	e8 9b 18 00 00       	call   804a46a <_ZNKSt14priority_queueI4taskSt6vectorIS0_SaIS0_EE12compare_taskE3topEv>
 8048bcf:	83 c4 10             	add    $0x10,%esp
 8048bd2:	8b 10                	mov    (%eax),%edx
 8048bd4:	89 55 d8             	mov    %edx,-0x28(%ebp)
 8048bd7:	8b 50 04             	mov    0x4(%eax),%edx
 8048bda:	89 55 dc             	mov    %edx,-0x24(%ebp)
 8048bdd:	8b 50 08             	mov    0x8(%eax),%edx
 8048be0:	89 55 e0             	mov    %edx,-0x20(%ebp)
 8048be3:	8b 50 0c             	mov    0xc(%eax),%edx
 8048be6:	89 55 e4             	mov    %edx,-0x1c(%ebp)
 8048be9:	8b 50 10             	mov    0x10(%eax),%edx
 8048bec:	89 55 e8             	mov    %edx,-0x18(%ebp)
 8048bef:	8b 50 14             	mov    0x14(%eax),%edx
 8048bf2:	89 55 ec             	mov    %edx,-0x14(%ebp)
 8048bf5:	8b 40 18             	mov    0x18(%eax),%eax
 8048bf8:	89 45 f0             	mov    %eax,-0x10(%ebp)
 8048bfb:	8b 55 dc             	mov    -0x24(%ebp),%edx
 8048bfe:	8b 45 d4             	mov    -0x2c(%ebp),%eax
 8048c01:	89 10                	mov    %edx,(%eax)
 8048c03:	8b 55 d8             	mov    -0x28(%ebp),%edx
 8048c06:	8b 45 d0             	mov    -0x30(%ebp),%eax
 8048c09:	89 10                	mov    %edx,(%eax)
 8048c0b:	8b 55 e0             	mov    -0x20(%ebp),%edx
 8048c0e:	8b 45 cc             	mov    -0x34(%ebp),%eax
 8048c11:	89 10                	mov    %edx,(%eax)
 8048c13:	e8 c3 fe ff ff       	call   8048adb <_Z8deq_taskv>
 8048c18:	8b 45 f4             	mov    -0xc(%ebp),%eax
 8048c1b:	65 33 05 14 00 00 00 	xor    %gs:0x14,%eax
 8048c22:	74 05                	je     8048c29 <_Z13deq_task_arg0PjS_S_+0xa9>
 8048c24:	e8 d7 fb ff ff       	call   8048800 <__stack_chk_fail@plt>
 8048c29:	c9                   	leave  
 8048c2a:	c3                   	ret    

08048c2b <_Z13deq_task_arg1PjS_S_S_>:
 8048c2b:	55                   	push   %ebp
 8048c2c:	89 e5                	mov    %esp,%ebp
 8048c2e:	83 ec 38             	sub    $0x38,%esp
 8048c31:	8b 45 08             	mov    0x8(%ebp),%eax
 8048c34:	89 45 d4             	mov    %eax,-0x2c(%ebp)
 8048c37:	8b 45 0c             	mov    0xc(%ebp),%eax
 8048c3a:	89 45 d0             	mov    %eax,-0x30(%ebp)
 8048c3d:	8b 45 10             	mov    0x10(%ebp),%eax
 8048c40:	89 45 cc             	mov    %eax,-0x34(%ebp)
 8048c43:	8b 45 14             	mov    0x14(%ebp),%eax
 8048c46:	89 45 c8             	mov    %eax,-0x38(%ebp)
 8048c49:	65 a1 14 00 00 00    	mov    %gs:0x14,%eax
 8048c4f:	89 45 f4             	mov    %eax,-0xc(%ebp)
 8048c52:	31 c0                	xor    %eax,%eax
 8048c54:	83 ec 0c             	sub    $0xc,%esp
 8048c57:	68 6c f0 04 08       	push   $0x804f06c
 8048c5c:	e8 97 18 00 00       	call   804a4f8 <_ZNKSt14priority_queueI4taskSt6vectorIS0_SaIS0_EE12compare_taskE5emptyEv>
 8048c61:	83 c4 10             	add    $0x10,%esp
 8048c64:	84 c0                	test   %al,%al
 8048c66:	74 0b                	je     8048c73 <_Z13deq_task_arg1PjS_S_S_+0x48>
 8048c68:	8b 45 d4             	mov    -0x2c(%ebp),%eax
 8048c6b:	c7 00 ff ff ff ff    	movl   $0xffffffff,(%eax)
 8048c71:	eb 5e                	jmp    8048cd1 <_Z13deq_task_arg1PjS_S_S_+0xa6>
 8048c73:	83 ec 0c             	sub    $0xc,%esp
 8048c76:	68 6c f0 04 08       	push   $0x804f06c
 8048c7b:	e8 ea 17 00 00       	call   804a46a <_ZNKSt14priority_queueI4taskSt6vectorIS0_SaIS0_EE12compare_taskE3topEv>
 8048c80:	83 c4 10             	add    $0x10,%esp
 8048c83:	8b 10                	mov    (%eax),%edx
 8048c85:	89 55 d8             	mov    %edx,-0x28(%ebp)
 8048c88:	8b 50 04             	mov    0x4(%eax),%edx
 8048c8b:	89 55 dc             	mov    %edx,-0x24(%ebp)
 8048c8e:	8b 50 08             	mov    0x8(%eax),%edx
 8048c91:	89 55 e0             	mov    %edx,-0x20(%ebp)
 8048c94:	8b 50 0c             	mov    0xc(%eax),%edx
 8048c97:	89 55 e4             	mov    %edx,-0x1c(%ebp)
 8048c9a:	8b 50 10             	mov    0x10(%eax),%edx
 8048c9d:	89 55 e8             	mov    %edx,-0x18(%ebp)
 8048ca0:	8b 50 14             	mov    0x14(%eax),%edx
 8048ca3:	89 55 ec             	mov    %edx,-0x14(%ebp)
 8048ca6:	8b 40 18             	mov    0x18(%eax),%eax
 8048ca9:	89 45 f0             	mov    %eax,-0x10(%ebp)
 8048cac:	8b 55 dc             	mov    -0x24(%ebp),%edx
 8048caf:	8b 45 d4             	mov    -0x2c(%ebp),%eax
 8048cb2:	89 10                	mov    %edx,(%eax)
 8048cb4:	8b 55 d8             	mov    -0x28(%ebp),%edx
 8048cb7:	8b 45 d0             	mov    -0x30(%ebp),%eax
 8048cba:	89 10                	mov    %edx,(%eax)
 8048cbc:	8b 55 e0             	mov    -0x20(%ebp),%edx
 8048cbf:	8b 45 cc             	mov    -0x34(%ebp),%eax
 8048cc2:	89 10                	mov    %edx,(%eax)
 8048cc4:	8b 55 e4             	mov    -0x1c(%ebp),%edx
 8048cc7:	8b 45 c8             	mov    -0x38(%ebp),%eax
 8048cca:	89 10                	mov    %edx,(%eax)
 8048ccc:	e8 0a fe ff ff       	call   8048adb <_Z8deq_taskv>
 8048cd1:	8b 45 f4             	mov    -0xc(%ebp),%eax
 8048cd4:	65 33 05 14 00 00 00 	xor    %gs:0x14,%eax
 8048cdb:	74 05                	je     8048ce2 <_Z13deq_task_arg1PjS_S_S_+0xb7>
 8048cdd:	e8 1e fb ff ff       	call   8048800 <__stack_chk_fail@plt>
 8048ce2:	c9                   	leave  
 8048ce3:	c3                   	ret    

08048ce4 <_Z13deq_task_arg2PjS_S_S_S_>:
 8048ce4:	55                   	push   %ebp
 8048ce5:	89 e5                	mov    %esp,%ebp
 8048ce7:	83 ec 48             	sub    $0x48,%esp
 8048cea:	8b 45 08             	mov    0x8(%ebp),%eax
 8048ced:	89 45 d4             	mov    %eax,-0x2c(%ebp)
 8048cf0:	8b 45 0c             	mov    0xc(%ebp),%eax
 8048cf3:	89 45 d0             	mov    %eax,-0x30(%ebp)
 8048cf6:	8b 45 10             	mov    0x10(%ebp),%eax
 8048cf9:	89 45 cc             	mov    %eax,-0x34(%ebp)
 8048cfc:	8b 45 14             	mov    0x14(%ebp),%eax
 8048cff:	89 45 c8             	mov    %eax,-0x38(%ebp)
 8048d02:	8b 45 18             	mov    0x18(%ebp),%eax
 8048d05:	89 45 c4             	mov    %eax,-0x3c(%ebp)
 8048d08:	65 a1 14 00 00 00    	mov    %gs:0x14,%eax
 8048d0e:	89 45 f4             	mov    %eax,-0xc(%ebp)
 8048d11:	31 c0                	xor    %eax,%eax
 8048d13:	83 ec 0c             	sub    $0xc,%esp
 8048d16:	68 6c f0 04 08       	push   $0x804f06c
 8048d1b:	e8 d8 17 00 00       	call   804a4f8 <_ZNKSt14priority_queueI4taskSt6vectorIS0_SaIS0_EE12compare_taskE5emptyEv>
 8048d20:	83 c4 10             	add    $0x10,%esp
 8048d23:	84 c0                	test   %al,%al
 8048d25:	74 0b                	je     8048d32 <_Z13deq_task_arg2PjS_S_S_S_+0x4e>
 8048d27:	8b 45 d4             	mov    -0x2c(%ebp),%eax
 8048d2a:	c7 00 ff ff ff ff    	movl   $0xffffffff,(%eax)
 8048d30:	eb 66                	jmp    8048d98 <_Z13deq_task_arg2PjS_S_S_S_+0xb4>
 8048d32:	83 ec 0c             	sub    $0xc,%esp
 8048d35:	68 6c f0 04 08       	push   $0x804f06c
 8048d3a:	e8 2b 17 00 00       	call   804a46a <_ZNKSt14priority_queueI4taskSt6vectorIS0_SaIS0_EE12compare_taskE3topEv>
 8048d3f:	83 c4 10             	add    $0x10,%esp
 8048d42:	8b 10                	mov    (%eax),%edx
 8048d44:	89 55 d8             	mov    %edx,-0x28(%ebp)
 8048d47:	8b 50 04             	mov    0x4(%eax),%edx
 8048d4a:	89 55 dc             	mov    %edx,-0x24(%ebp)
 8048d4d:	8b 50 08             	mov    0x8(%eax),%edx
 8048d50:	89 55 e0             	mov    %edx,-0x20(%ebp)
 8048d53:	8b 50 0c             	mov    0xc(%eax),%edx
 8048d56:	89 55 e4             	mov    %edx,-0x1c(%ebp)
 8048d59:	8b 50 10             	mov    0x10(%eax),%edx
 8048d5c:	89 55 e8             	mov    %edx,-0x18(%ebp)
 8048d5f:	8b 50 14             	mov    0x14(%eax),%edx
 8048d62:	89 55 ec             	mov    %edx,-0x14(%ebp)
 8048d65:	8b 40 18             	mov    0x18(%eax),%eax
 8048d68:	89 45 f0             	mov    %eax,-0x10(%ebp)
 8048d6b:	8b 55 dc             	mov    -0x24(%ebp),%edx
 8048d6e:	8b 45 d4             	mov    -0x2c(%ebp),%eax
 8048d71:	89 10                	mov    %edx,(%eax)
 8048d73:	8b 55 d8             	mov    -0x28(%ebp),%edx
 8048d76:	8b 45 d0             	mov    -0x30(%ebp),%eax
 8048d79:	89 10                	mov    %edx,(%eax)
 8048d7b:	8b 55 e0             	mov    -0x20(%ebp),%edx
 8048d7e:	8b 45 cc             	mov    -0x34(%ebp),%eax
 8048d81:	89 10                	mov    %edx,(%eax)
 8048d83:	8b 55 e4             	mov    -0x1c(%ebp),%edx
 8048d86:	8b 45 c8             	mov    -0x38(%ebp),%eax
 8048d89:	89 10                	mov    %edx,(%eax)
 8048d8b:	8b 55 e8             	mov    -0x18(%ebp),%edx
 8048d8e:	8b 45 c4             	mov    -0x3c(%ebp),%eax
 8048d91:	89 10                	mov    %edx,(%eax)
 8048d93:	e8 43 fd ff ff       	call   8048adb <_Z8deq_taskv>
 8048d98:	8b 45 f4             	mov    -0xc(%ebp),%eax
 8048d9b:	65 33 05 14 00 00 00 	xor    %gs:0x14,%eax
 8048da2:	74 05                	je     8048da9 <_Z13deq_task_arg2PjS_S_S_S_+0xc5>
 8048da4:	e8 57 fa ff ff       	call   8048800 <__stack_chk_fail@plt>
 8048da9:	c9                   	leave  
 8048daa:	c3                   	ret    

08048dab <_Z13deq_task_arg3PjS_S_S_S_S_>:
 8048dab:	55                   	push   %ebp
 8048dac:	89 e5                	mov    %esp,%ebp
 8048dae:	83 ec 48             	sub    $0x48,%esp
 8048db1:	8b 45 08             	mov    0x8(%ebp),%eax
 8048db4:	89 45 d4             	mov    %eax,-0x2c(%ebp)
 8048db7:	8b 45 0c             	mov    0xc(%ebp),%eax
 8048dba:	89 45 d0             	mov    %eax,-0x30(%ebp)
 8048dbd:	8b 45 10             	mov    0x10(%ebp),%eax
 8048dc0:	89 45 cc             	mov    %eax,-0x34(%ebp)
 8048dc3:	8b 45 14             	mov    0x14(%ebp),%eax
 8048dc6:	89 45 c8             	mov    %eax,-0x38(%ebp)
 8048dc9:	8b 45 18             	mov    0x18(%ebp),%eax
 8048dcc:	89 45 c4             	mov    %eax,-0x3c(%ebp)
 8048dcf:	8b 45 1c             	mov    0x1c(%ebp),%eax
 8048dd2:	89 45 c0             	mov    %eax,-0x40(%ebp)
 8048dd5:	65 a1 14 00 00 00    	mov    %gs:0x14,%eax
 8048ddb:	89 45 f4             	mov    %eax,-0xc(%ebp)
 8048dde:	31 c0                	xor    %eax,%eax
 8048de0:	83 ec 0c             	sub    $0xc,%esp
 8048de3:	68 6c f0 04 08       	push   $0x804f06c
 8048de8:	e8 0b 17 00 00       	call   804a4f8 <_ZNKSt14priority_queueI4taskSt6vectorIS0_SaIS0_EE12compare_taskE5emptyEv>
 8048ded:	83 c4 10             	add    $0x10,%esp
 8048df0:	84 c0                	test   %al,%al
 8048df2:	74 0b                	je     8048dff <_Z13deq_task_arg3PjS_S_S_S_S_+0x54>
 8048df4:	8b 45 d4             	mov    -0x2c(%ebp),%eax
 8048df7:	c7 00 ff ff ff ff    	movl   $0xffffffff,(%eax)
 8048dfd:	eb 6e                	jmp    8048e6d <_Z13deq_task_arg3PjS_S_S_S_S_+0xc2>
 8048dff:	83 ec 0c             	sub    $0xc,%esp
 8048e02:	68 6c f0 04 08       	push   $0x804f06c
 8048e07:	e8 5e 16 00 00       	call   804a46a <_ZNKSt14priority_queueI4taskSt6vectorIS0_SaIS0_EE12compare_taskE3topEv>
 8048e0c:	83 c4 10             	add    $0x10,%esp
 8048e0f:	8b 10                	mov    (%eax),%edx
 8048e11:	89 55 d8             	mov    %edx,-0x28(%ebp)
 8048e14:	8b 50 04             	mov    0x4(%eax),%edx
 8048e17:	89 55 dc             	mov    %edx,-0x24(%ebp)
 8048e1a:	8b 50 08             	mov    0x8(%eax),%edx
 8048e1d:	89 55 e0             	mov    %edx,-0x20(%ebp)
 8048e20:	8b 50 0c             	mov    0xc(%eax),%edx
 8048e23:	89 55 e4             	mov    %edx,-0x1c(%ebp)
 8048e26:	8b 50 10             	mov    0x10(%eax),%edx
 8048e29:	89 55 e8             	mov    %edx,-0x18(%ebp)
 8048e2c:	8b 50 14             	mov    0x14(%eax),%edx
 8048e2f:	89 55 ec             	mov    %edx,-0x14(%ebp)
 8048e32:	8b 40 18             	mov    0x18(%eax),%eax
 8048e35:	89 45 f0             	mov    %eax,-0x10(%ebp)
 8048e38:	8b 55 dc             	mov    -0x24(%ebp),%edx
 8048e3b:	8b 45 d4             	mov    -0x2c(%ebp),%eax
 8048e3e:	89 10                	mov    %edx,(%eax)
 8048e40:	8b 55 d8             	mov    -0x28(%ebp),%edx
 8048e43:	8b 45 d0             	mov    -0x30(%ebp),%eax
 8048e46:	89 10                	mov    %edx,(%eax)
 8048e48:	8b 55 e0             	mov    -0x20(%ebp),%edx
 8048e4b:	8b 45 cc             	mov    -0x34(%ebp),%eax
 8048e4e:	89 10                	mov    %edx,(%eax)
 8048e50:	8b 55 e4             	mov    -0x1c(%ebp),%edx
 8048e53:	8b 45 c8             	mov    -0x38(%ebp),%eax
 8048e56:	89 10                	mov    %edx,(%eax)
 8048e58:	8b 55 e8             	mov    -0x18(%ebp),%edx
 8048e5b:	8b 45 c4             	mov    -0x3c(%ebp),%eax
 8048e5e:	89 10                	mov    %edx,(%eax)
 8048e60:	8b 55 ec             	mov    -0x14(%ebp),%edx
 8048e63:	8b 45 c0             	mov    -0x40(%ebp),%eax
 8048e66:	89 10                	mov    %edx,(%eax)
 8048e68:	e8 6e fc ff ff       	call   8048adb <_Z8deq_taskv>
 8048e6d:	8b 45 f4             	mov    -0xc(%ebp),%eax
 8048e70:	65 33 05 14 00 00 00 	xor    %gs:0x14,%eax
 8048e77:	74 05                	je     8048e7e <_Z13deq_task_arg3PjS_S_S_S_S_+0xd3>
 8048e79:	e8 82 f9 ff ff       	call   8048800 <__stack_chk_fail@plt>
 8048e7e:	c9                   	leave  
 8048e7f:	c3                   	ret    

08048e80 <_Z13deq_task_arg4PjS_S_S_S_S_S_>:
 8048e80:	55                   	push   %ebp
 8048e81:	89 e5                	mov    %esp,%ebp
 8048e83:	83 ec 48             	sub    $0x48,%esp
 8048e86:	8b 45 08             	mov    0x8(%ebp),%eax
 8048e89:	89 45 d4             	mov    %eax,-0x2c(%ebp)
 8048e8c:	8b 45 0c             	mov    0xc(%ebp),%eax
 8048e8f:	89 45 d0             	mov    %eax,-0x30(%ebp)
 8048e92:	8b 45 10             	mov    0x10(%ebp),%eax
 8048e95:	89 45 cc             	mov    %eax,-0x34(%ebp)
 8048e98:	8b 45 14             	mov    0x14(%ebp),%eax
 8048e9b:	89 45 c8             	mov    %eax,-0x38(%ebp)
 8048e9e:	8b 45 18             	mov    0x18(%ebp),%eax
 8048ea1:	89 45 c4             	mov    %eax,-0x3c(%ebp)
 8048ea4:	8b 45 1c             	mov    0x1c(%ebp),%eax
 8048ea7:	89 45 c0             	mov    %eax,-0x40(%ebp)
 8048eaa:	8b 45 20             	mov    0x20(%ebp),%eax
 8048ead:	89 45 bc             	mov    %eax,-0x44(%ebp)
 8048eb0:	65 a1 14 00 00 00    	mov    %gs:0x14,%eax
 8048eb6:	89 45 f4             	mov    %eax,-0xc(%ebp)
 8048eb9:	31 c0                	xor    %eax,%eax
 8048ebb:	83 ec 0c             	sub    $0xc,%esp
 8048ebe:	68 6c f0 04 08       	push   $0x804f06c
 8048ec3:	e8 30 16 00 00       	call   804a4f8 <_ZNKSt14priority_queueI4taskSt6vectorIS0_SaIS0_EE12compare_taskE5emptyEv>
 8048ec8:	83 c4 10             	add    $0x10,%esp
 8048ecb:	84 c0                	test   %al,%al
 8048ecd:	74 0b                	je     8048eda <_Z13deq_task_arg4PjS_S_S_S_S_S_+0x5a>
 8048ecf:	8b 45 d4             	mov    -0x2c(%ebp),%eax
 8048ed2:	c7 00 ff ff ff ff    	movl   $0xffffffff,(%eax)
 8048ed8:	eb 76                	jmp    8048f50 <_Z13deq_task_arg4PjS_S_S_S_S_S_+0xd0>
 8048eda:	83 ec 0c             	sub    $0xc,%esp
 8048edd:	68 6c f0 04 08       	push   $0x804f06c
 8048ee2:	e8 83 15 00 00       	call   804a46a <_ZNKSt14priority_queueI4taskSt6vectorIS0_SaIS0_EE12compare_taskE3topEv>
 8048ee7:	83 c4 10             	add    $0x10,%esp
 8048eea:	8b 10                	mov    (%eax),%edx
 8048eec:	89 55 d8             	mov    %edx,-0x28(%ebp)
 8048eef:	8b 50 04             	mov    0x4(%eax),%edx
 8048ef2:	89 55 dc             	mov    %edx,-0x24(%ebp)
 8048ef5:	8b 50 08             	mov    0x8(%eax),%edx
 8048ef8:	89 55 e0             	mov    %edx,-0x20(%ebp)
 8048efb:	8b 50 0c             	mov    0xc(%eax),%edx
 8048efe:	89 55 e4             	mov    %edx,-0x1c(%ebp)
 8048f01:	8b 50 10             	mov    0x10(%eax),%edx
 8048f04:	89 55 e8             	mov    %edx,-0x18(%ebp)
 8048f07:	8b 50 14             	mov    0x14(%eax),%edx
 8048f0a:	89 55 ec             	mov    %edx,-0x14(%ebp)
 8048f0d:	8b 40 18             	mov    0x18(%eax),%eax
 8048f10:	89 45 f0             	mov    %eax,-0x10(%ebp)
 8048f13:	8b 55 dc             	mov    -0x24(%ebp),%edx
 8048f16:	8b 45 d4             	mov    -0x2c(%ebp),%eax
 8048f19:	89 10                	mov    %edx,(%eax)
 8048f1b:	8b 55 d8             	mov    -0x28(%ebp),%edx
 8048f1e:	8b 45 d0             	mov    -0x30(%ebp),%eax
 8048f21:	89 10                	mov    %edx,(%eax)
 8048f23:	8b 55 e0             	mov    -0x20(%ebp),%edx
 8048f26:	8b 45 cc             	mov    -0x34(%ebp),%eax
 8048f29:	89 10                	mov    %edx,(%eax)
 8048f2b:	8b 55 e4             	mov    -0x1c(%ebp),%edx
 8048f2e:	8b 45 c8             	mov    -0x38(%ebp),%eax
 8048f31:	89 10                	mov    %edx,(%eax)
 8048f33:	8b 55 e8             	mov    -0x18(%ebp),%edx
 8048f36:	8b 45 c4             	mov    -0x3c(%ebp),%eax
 8048f39:	89 10                	mov    %edx,(%eax)
 8048f3b:	8b 55 ec             	mov    -0x14(%ebp),%edx
 8048f3e:	8b 45 c0             	mov    -0x40(%ebp),%eax
 8048f41:	89 10                	mov    %edx,(%eax)
 8048f43:	8b 55 f0             	mov    -0x10(%ebp),%edx
 8048f46:	8b 45 bc             	mov    -0x44(%ebp),%eax
 8048f49:	89 10                	mov    %edx,(%eax)
 8048f4b:	e8 8b fb ff ff       	call   8048adb <_Z8deq_taskv>
 8048f50:	8b 45 f4             	mov    -0xc(%ebp),%eax
 8048f53:	65 33 05 14 00 00 00 	xor    %gs:0x14,%eax
 8048f5a:	74 05                	je     8048f61 <_Z13deq_task_arg4PjS_S_S_S_S_S_+0xe1>
 8048f5c:	e8 9f f8 ff ff       	call   8048800 <__stack_chk_fail@plt>
 8048f61:	c9                   	leave  
 8048f62:	c3                   	ret    

08048f63 <_Z22create_graph_from_filev>:
 8048f63:	55                   	push   %ebp
 8048f64:	89 e5                	mov    %esp,%ebp
 8048f66:	57                   	push   %edi
 8048f67:	56                   	push   %esi
 8048f68:	53                   	push   %ebx
 8048f69:	83 ec 6c             	sub    $0x6c,%esp
 8048f6c:	65 a1 14 00 00 00    	mov    %gs:0x14,%eax
 8048f72:	89 45 e4             	mov    %eax,-0x1c(%ebp)
 8048f75:	31 c0                	xor    %eax,%eax
 8048f77:	83 ec 08             	sub    $0x8,%esp
 8048f7a:	68 38 bc 04 08       	push   $0x804bc38
 8048f7f:	68 3b bc 04 08       	push   $0x804bc3b
 8048f84:	e8 47 f8 ff ff       	call   80487d0 <fopen@plt>
 8048f89:	83 c4 10             	add    $0x10,%esp
 8048f8c:	89 45 e0             	mov    %eax,-0x20(%ebp)
 8048f8f:	83 7d e0 00          	cmpl   $0x0,-0x20(%ebp)
 8048f93:	75 10                	jne    8048fa5 <_Z22create_graph_from_filev+0x42>
 8048f95:	83 ec 0c             	sub    $0xc,%esp
 8048f98:	68 4b bc 04 08       	push   $0x804bc4b
 8048f9d:	e8 3e f8 ff ff       	call   80487e0 <printf@plt>
 8048fa2:	83 c4 10             	add    $0x10,%esp
 8048fa5:	c7 45 c0 00 00 00 00 	movl   $0x0,-0x40(%ebp)
 8048fac:	ff 75 e0             	pushl  -0x20(%ebp)
 8048faf:	6a 01                	push   $0x1
 8048fb1:	6a 04                	push   $0x4
 8048fb3:	8d 45 a0             	lea    -0x60(%ebp),%eax
 8048fb6:	50                   	push   %eax
 8048fb7:	e8 a4 f8 ff ff       	call   8048860 <fread@plt>
 8048fbc:	83 c4 10             	add    $0x10,%esp
 8048fbf:	83 45 c0 01          	addl   $0x1,-0x40(%ebp)
 8048fc3:	8b 45 a0             	mov    -0x60(%ebp),%eax
 8048fc6:	3d ad de 00 00       	cmp    $0xdead,%eax
 8048fcb:	74 10                	je     8048fdd <_Z22create_graph_from_filev+0x7a>
 8048fcd:	83 ec 0c             	sub    $0xc,%esp
 8048fd0:	68 60 bc 04 08       	push   $0x804bc60
 8048fd5:	e8 06 f8 ff ff       	call   80487e0 <printf@plt>
 8048fda:	83 c4 10             	add    $0x10,%esp
 8048fdd:	ff 75 e0             	pushl  -0x20(%ebp)
 8048fe0:	6a 01                	push   $0x1
 8048fe2:	6a 04                	push   $0x4
 8048fe4:	68 7c f0 04 08       	push   $0x804f07c
 8048fe9:	e8 72 f8 ff ff       	call   8048860 <fread@plt>
 8048fee:	83 c4 10             	add    $0x10,%esp
 8048ff1:	ff 75 e0             	pushl  -0x20(%ebp)
 8048ff4:	6a 01                	push   $0x1
 8048ff6:	6a 04                	push   $0x4
 8048ff8:	68 80 f0 04 08       	push   $0x804f080
 8048ffd:	e8 5e f8 ff ff       	call   8048860 <fread@plt>
 8049002:	83 c4 10             	add    $0x10,%esp
 8049005:	83 45 c0 02          	addl   $0x2,-0x40(%ebp)
 8049009:	8b 15 80 f0 04 08    	mov    0x804f080,%edx
 804900f:	a1 7c f0 04 08       	mov    0x804f07c,%eax
 8049014:	83 ec 04             	sub    $0x4,%esp
 8049017:	52                   	push   %edx
 8049018:	50                   	push   %eax
 8049019:	68 80 bc 04 08       	push   $0x804bc80
 804901e:	e8 bd f7 ff ff       	call   80487e0 <printf@plt>
 8049023:	83 c4 10             	add    $0x10,%esp
 8049026:	ff 75 e0             	pushl  -0x20(%ebp)
 8049029:	6a 01                	push   $0x1
 804902b:	6a 04                	push   $0x4
 804902d:	8d 45 a4             	lea    -0x5c(%ebp),%eax
 8049030:	50                   	push   %eax
 8049031:	e8 2a f8 ff ff       	call   8048860 <fread@plt>
 8049036:	83 c4 10             	add    $0x10,%esp
 8049039:	ff 75 e0             	pushl  -0x20(%ebp)
 804903c:	6a 01                	push   $0x1
 804903e:	6a 04                	push   $0x4
 8049040:	8d 45 a8             	lea    -0x58(%ebp),%eax
 8049043:	50                   	push   %eax
 8049044:	e8 17 f8 ff ff       	call   8048860 <fread@plt>
 8049049:	83 c4 10             	add    $0x10,%esp
 804904c:	ff 75 e0             	pushl  -0x20(%ebp)
 804904f:	6a 01                	push   $0x1
 8049051:	6a 04                	push   $0x4
 8049053:	8d 45 ac             	lea    -0x54(%ebp),%eax
 8049056:	50                   	push   %eax
 8049057:	e8 04 f8 ff ff       	call   8048860 <fread@plt>
 804905c:	83 c4 10             	add    $0x10,%esp
 804905f:	ff 75 e0             	pushl  -0x20(%ebp)
 8049062:	6a 01                	push   $0x1
 8049064:	6a 04                	push   $0x4
 8049066:	8d 45 b0             	lea    -0x50(%ebp),%eax
 8049069:	50                   	push   %eax
 804906a:	e8 f1 f7 ff ff       	call   8048860 <fread@plt>
 804906f:	83 c4 10             	add    $0x10,%esp
 8049072:	ff 75 e0             	pushl  -0x20(%ebp)
 8049075:	6a 01                	push   $0x1
 8049077:	6a 04                	push   $0x4
 8049079:	8d 45 b4             	lea    -0x4c(%ebp),%eax
 804907c:	50                   	push   %eax
 804907d:	e8 de f7 ff ff       	call   8048860 <fread@plt>
 8049082:	83 c4 10             	add    $0x10,%esp
 8049085:	ff 75 e0             	pushl  -0x20(%ebp)
 8049088:	6a 01                	push   $0x1
 804908a:	6a 04                	push   $0x4
 804908c:	8d 45 b8             	lea    -0x48(%ebp),%eax
 804908f:	50                   	push   %eax
 8049090:	e8 cb f7 ff ff       	call   8048860 <fread@plt>
 8049095:	83 c4 10             	add    $0x10,%esp
 8049098:	ff 75 e0             	pushl  -0x20(%ebp)
 804909b:	6a 01                	push   $0x1
 804909d:	6a 04                	push   $0x4
 804909f:	8d 45 bc             	lea    -0x44(%ebp),%eax
 80490a2:	50                   	push   %eax
 80490a3:	e8 b8 f7 ff ff       	call   8048860 <fread@plt>
 80490a8:	83 c4 10             	add    $0x10,%esp
 80490ab:	83 45 c0 07          	addl   $0x7,-0x40(%ebp)
 80490af:	8b 45 bc             	mov    -0x44(%ebp),%eax
 80490b2:	89 45 94             	mov    %eax,-0x6c(%ebp)
 80490b5:	8b 7d b8             	mov    -0x48(%ebp),%edi
 80490b8:	8b 75 b4             	mov    -0x4c(%ebp),%esi
 80490bb:	8b 5d b0             	mov    -0x50(%ebp),%ebx
 80490be:	8b 4d ac             	mov    -0x54(%ebp),%ecx
 80490c1:	8b 55 a8             	mov    -0x58(%ebp),%edx
 80490c4:	8b 45 a4             	mov    -0x5c(%ebp),%eax
 80490c7:	ff 75 94             	pushl  -0x6c(%ebp)
 80490ca:	57                   	push   %edi
 80490cb:	56                   	push   %esi
 80490cc:	53                   	push   %ebx
 80490cd:	51                   	push   %ecx
 80490ce:	52                   	push   %edx
 80490cf:	50                   	push   %eax
 80490d0:	68 b0 bc 04 08       	push   $0x804bcb0
 80490d5:	e8 06 f7 ff ff       	call   80487e0 <printf@plt>
 80490da:	83 c4 20             	add    $0x20,%esp
 80490dd:	ff 75 e0             	pushl  -0x20(%ebp)
 80490e0:	6a 01                	push   $0x1
 80490e2:	6a 04                	push   $0x4
 80490e4:	68 84 f0 04 08       	push   $0x804f084
 80490e9:	e8 72 f7 ff ff       	call   8048860 <fread@plt>
 80490ee:	83 c4 10             	add    $0x10,%esp
 80490f1:	83 45 c0 01          	addl   $0x1,-0x40(%ebp)
 80490f5:	d9 05 84 f0 04 08    	flds   0x804f084
 80490fb:	83 ec 04             	sub    $0x4,%esp
 80490fe:	8d 64 24 f8          	lea    -0x8(%esp),%esp
 8049102:	dd 1c 24             	fstpl  (%esp)
 8049105:	68 57 bd 04 08       	push   $0x804bd57
 804910a:	e8 d1 f6 ff ff       	call   80487e0 <printf@plt>
 804910f:	83 c4 10             	add    $0x10,%esp
 8049112:	a1 7c f0 04 08       	mov    0x804f07c,%eax
 8049117:	83 c0 01             	add    $0x1,%eax
 804911a:	83 ec 08             	sub    $0x8,%esp
 804911d:	6a 04                	push   $0x4
 804911f:	50                   	push   %eax
 8049120:	e8 5b f6 ff ff       	call   8048780 <calloc@plt>
 8049125:	83 c4 10             	add    $0x10,%esp
 8049128:	a3 88 f0 04 08       	mov    %eax,0x804f088
 804912d:	a1 80 f0 04 08       	mov    0x804f080,%eax
 8049132:	83 ec 08             	sub    $0x8,%esp
 8049135:	6a 04                	push   $0x4
 8049137:	50                   	push   %eax
 8049138:	e8 43 f6 ff ff       	call   8048780 <calloc@plt>
 804913d:	83 c4 10             	add    $0x10,%esp
 8049140:	a3 8c f0 04 08       	mov    %eax,0x804f08c
 8049145:	a1 7c f0 04 08       	mov    0x804f07c,%eax
 804914a:	83 c0 01             	add    $0x1,%eax
 804914d:	83 ec 08             	sub    $0x8,%esp
 8049150:	6a 04                	push   $0x4
 8049152:	50                   	push   %eax
 8049153:	e8 28 f6 ff ff       	call   8048780 <calloc@plt>
 8049158:	83 c4 10             	add    $0x10,%esp
 804915b:	a3 90 f0 04 08       	mov    %eax,0x804f090
 8049160:	a1 80 f0 04 08       	mov    0x804f080,%eax
 8049165:	83 ec 08             	sub    $0x8,%esp
 8049168:	6a 04                	push   $0x4
 804916a:	50                   	push   %eax
 804916b:	e8 10 f6 ff ff       	call   8048780 <calloc@plt>
 8049170:	83 c4 10             	add    $0x10,%esp
 8049173:	a3 94 f0 04 08       	mov    %eax,0x804f094
 8049178:	a1 80 f0 04 08       	mov    0x804f080,%eax
 804917d:	83 ec 08             	sub    $0x8,%esp
 8049180:	6a 04                	push   $0x4
 8049182:	50                   	push   %eax
 8049183:	e8 f8 f5 ff ff       	call   8048780 <calloc@plt>
 8049188:	83 c4 10             	add    $0x10,%esp
 804918b:	a3 98 f0 04 08       	mov    %eax,0x804f098
 8049190:	a1 80 f0 04 08       	mov    0x804f080,%eax
 8049195:	01 c0                	add    %eax,%eax
 8049197:	83 ec 08             	sub    $0x8,%esp
 804919a:	6a 20                	push   $0x20
 804919c:	50                   	push   %eax
 804919d:	e8 de f5 ff ff       	call   8048780 <calloc@plt>
 80491a2:	83 c4 10             	add    $0x10,%esp
 80491a5:	a3 9c f0 04 08       	mov    %eax,0x804f09c
 80491aa:	a1 80 f0 04 08       	mov    0x804f080,%eax
 80491af:	01 c0                	add    %eax,%eax
 80491b1:	83 ec 08             	sub    $0x8,%esp
 80491b4:	6a 20                	push   $0x20
 80491b6:	50                   	push   %eax
 80491b7:	e8 c4 f5 ff ff       	call   8048780 <calloc@plt>
 80491bc:	83 c4 10             	add    $0x10,%esp
 80491bf:	a3 a0 f0 04 08       	mov    %eax,0x804f0a0
 80491c4:	a1 88 f0 04 08       	mov    0x804f088,%eax
 80491c9:	85 c0                	test   %eax,%eax
 80491cb:	74 2d                	je     80491fa <_Z22create_graph_from_filev+0x297>
 80491cd:	a1 8c f0 04 08       	mov    0x804f08c,%eax
 80491d2:	85 c0                	test   %eax,%eax
 80491d4:	74 24                	je     80491fa <_Z22create_graph_from_filev+0x297>
 80491d6:	a1 90 f0 04 08       	mov    0x804f090,%eax
 80491db:	85 c0                	test   %eax,%eax
 80491dd:	74 1b                	je     80491fa <_Z22create_graph_from_filev+0x297>
 80491df:	a1 94 f0 04 08       	mov    0x804f094,%eax
 80491e4:	85 c0                	test   %eax,%eax
 80491e6:	74 12                	je     80491fa <_Z22create_graph_from_filev+0x297>
 80491e8:	a1 98 f0 04 08       	mov    0x804f098,%eax
 80491ed:	85 c0                	test   %eax,%eax
 80491ef:	74 09                	je     80491fa <_Z22create_graph_from_filev+0x297>
 80491f1:	a1 9c f0 04 08       	mov    0x804f09c,%eax
 80491f6:	85 c0                	test   %eax,%eax
 80491f8:	75 10                	jne    804920a <_Z22create_graph_from_filev+0x2a7>
 80491fa:	83 ec 0c             	sub    $0xc,%esp
 80491fd:	68 6c bd 04 08       	push   $0x804bd6c
 8049202:	e8 d9 f5 ff ff       	call   80487e0 <printf@plt>
 8049207:	83 c4 10             	add    $0x10,%esp
 804920a:	8b 45 a4             	mov    -0x5c(%ebp),%eax
 804920d:	39 45 c0             	cmp    %eax,-0x40(%ebp)
 8049210:	73 19                	jae    804922b <_Z22create_graph_from_filev+0x2c8>
 8049212:	ff 75 e0             	pushl  -0x20(%ebp)
 8049215:	6a 01                	push   $0x1
 8049217:	6a 04                	push   $0x4
 8049219:	8d 45 9c             	lea    -0x64(%ebp),%eax
 804921c:	50                   	push   %eax
 804921d:	e8 3e f6 ff ff       	call   8048860 <fread@plt>
 8049222:	83 c4 10             	add    $0x10,%esp
 8049225:	83 45 c0 01          	addl   $0x1,-0x40(%ebp)
 8049229:	eb df                	jmp    804920a <_Z22create_graph_from_filev+0x2a7>
 804922b:	c7 45 c4 00 00 00 00 	movl   $0x0,-0x3c(%ebp)
 8049232:	a1 7c f0 04 08       	mov    0x804f07c,%eax
 8049237:	83 c0 01             	add    $0x1,%eax
 804923a:	3b 45 c4             	cmp    -0x3c(%ebp),%eax
 804923d:	76 27                	jbe    8049266 <_Z22create_graph_from_filev+0x303>
 804923f:	a1 88 f0 04 08       	mov    0x804f088,%eax
 8049244:	8b 55 c4             	mov    -0x3c(%ebp),%edx
 8049247:	c1 e2 02             	shl    $0x2,%edx
 804924a:	01 d0                	add    %edx,%eax
 804924c:	ff 75 e0             	pushl  -0x20(%ebp)
 804924f:	6a 01                	push   $0x1
 8049251:	6a 04                	push   $0x4
 8049253:	50                   	push   %eax
 8049254:	e8 07 f6 ff ff       	call   8048860 <fread@plt>
 8049259:	83 c4 10             	add    $0x10,%esp
 804925c:	83 45 c0 01          	addl   $0x1,-0x40(%ebp)
 8049260:	83 45 c4 01          	addl   $0x1,-0x3c(%ebp)
 8049264:	eb cc                	jmp    8049232 <_Z22create_graph_from_filev+0x2cf>
 8049266:	8b 45 a8             	mov    -0x58(%ebp),%eax
 8049269:	39 45 c0             	cmp    %eax,-0x40(%ebp)
 804926c:	73 19                	jae    8049287 <_Z22create_graph_from_filev+0x324>
 804926e:	ff 75 e0             	pushl  -0x20(%ebp)
 8049271:	6a 01                	push   $0x1
 8049273:	6a 04                	push   $0x4
 8049275:	8d 45 9c             	lea    -0x64(%ebp),%eax
 8049278:	50                   	push   %eax
 8049279:	e8 e2 f5 ff ff       	call   8048860 <fread@plt>
 804927e:	83 c4 10             	add    $0x10,%esp
 8049281:	83 45 c0 01          	addl   $0x1,-0x40(%ebp)
 8049285:	eb df                	jmp    8049266 <_Z22create_graph_from_filev+0x303>
 8049287:	c7 45 c8 00 00 00 00 	movl   $0x0,-0x38(%ebp)
 804928e:	a1 80 f0 04 08       	mov    0x804f080,%eax
 8049293:	39 45 c8             	cmp    %eax,-0x38(%ebp)
 8049296:	73 27                	jae    80492bf <_Z22create_graph_from_filev+0x35c>
 8049298:	a1 8c f0 04 08       	mov    0x804f08c,%eax
 804929d:	8b 55 c8             	mov    -0x38(%ebp),%edx
 80492a0:	c1 e2 02             	shl    $0x2,%edx
 80492a3:	01 d0                	add    %edx,%eax
 80492a5:	ff 75 e0             	pushl  -0x20(%ebp)
 80492a8:	6a 01                	push   $0x1
 80492aa:	6a 04                	push   $0x4
 80492ac:	50                   	push   %eax
 80492ad:	e8 ae f5 ff ff       	call   8048860 <fread@plt>
 80492b2:	83 c4 10             	add    $0x10,%esp
 80492b5:	83 45 c0 01          	addl   $0x1,-0x40(%ebp)
 80492b9:	83 45 c8 01          	addl   $0x1,-0x38(%ebp)
 80492bd:	eb cf                	jmp    804928e <_Z22create_graph_from_filev+0x32b>
 80492bf:	8b 45 ac             	mov    -0x54(%ebp),%eax
 80492c2:	39 45 c0             	cmp    %eax,-0x40(%ebp)
 80492c5:	73 19                	jae    80492e0 <_Z22create_graph_from_filev+0x37d>
 80492c7:	ff 75 e0             	pushl  -0x20(%ebp)
 80492ca:	6a 01                	push   $0x1
 80492cc:	6a 04                	push   $0x4
 80492ce:	8d 45 9c             	lea    -0x64(%ebp),%eax
 80492d1:	50                   	push   %eax
 80492d2:	e8 89 f5 ff ff       	call   8048860 <fread@plt>
 80492d7:	83 c4 10             	add    $0x10,%esp
 80492da:	83 45 c0 01          	addl   $0x1,-0x40(%ebp)
 80492de:	eb df                	jmp    80492bf <_Z22create_graph_from_filev+0x35c>
 80492e0:	c7 45 cc 00 00 00 00 	movl   $0x0,-0x34(%ebp)
 80492e7:	a1 7c f0 04 08       	mov    0x804f07c,%eax
 80492ec:	83 c0 01             	add    $0x1,%eax
 80492ef:	3b 45 cc             	cmp    -0x34(%ebp),%eax
 80492f2:	76 27                	jbe    804931b <_Z22create_graph_from_filev+0x3b8>
 80492f4:	a1 90 f0 04 08       	mov    0x804f090,%eax
 80492f9:	8b 55 cc             	mov    -0x34(%ebp),%edx
 80492fc:	c1 e2 02             	shl    $0x2,%edx
 80492ff:	01 d0                	add    %edx,%eax
 8049301:	ff 75 e0             	pushl  -0x20(%ebp)
 8049304:	6a 01                	push   $0x1
 8049306:	6a 04                	push   $0x4
 8049308:	50                   	push   %eax
 8049309:	e8 52 f5 ff ff       	call   8048860 <fread@plt>
 804930e:	83 c4 10             	add    $0x10,%esp
 8049311:	83 45 c0 01          	addl   $0x1,-0x40(%ebp)
 8049315:	83 45 cc 01          	addl   $0x1,-0x34(%ebp)
 8049319:	eb cc                	jmp    80492e7 <_Z22create_graph_from_filev+0x384>
 804931b:	8b 45 b0             	mov    -0x50(%ebp),%eax
 804931e:	39 45 c0             	cmp    %eax,-0x40(%ebp)
 8049321:	73 19                	jae    804933c <_Z22create_graph_from_filev+0x3d9>
 8049323:	ff 75 e0             	pushl  -0x20(%ebp)
 8049326:	6a 01                	push   $0x1
 8049328:	6a 04                	push   $0x4
 804932a:	8d 45 9c             	lea    -0x64(%ebp),%eax
 804932d:	50                   	push   %eax
 804932e:	e8 2d f5 ff ff       	call   8048860 <fread@plt>
 8049333:	83 c4 10             	add    $0x10,%esp
 8049336:	83 45 c0 01          	addl   $0x1,-0x40(%ebp)
 804933a:	eb df                	jmp    804931b <_Z22create_graph_from_filev+0x3b8>
 804933c:	c7 45 d0 00 00 00 00 	movl   $0x0,-0x30(%ebp)
 8049343:	a1 80 f0 04 08       	mov    0x804f080,%eax
 8049348:	39 45 d0             	cmp    %eax,-0x30(%ebp)
 804934b:	73 27                	jae    8049374 <_Z22create_graph_from_filev+0x411>
 804934d:	a1 94 f0 04 08       	mov    0x804f094,%eax
 8049352:	8b 55 d0             	mov    -0x30(%ebp),%edx
 8049355:	c1 e2 02             	shl    $0x2,%edx
 8049358:	01 d0                	add    %edx,%eax
 804935a:	ff 75 e0             	pushl  -0x20(%ebp)
 804935d:	6a 01                	push   $0x1
 804935f:	6a 04                	push   $0x4
 8049361:	50                   	push   %eax
 8049362:	e8 f9 f4 ff ff       	call   8048860 <fread@plt>
 8049367:	83 c4 10             	add    $0x10,%esp
 804936a:	83 45 c0 01          	addl   $0x1,-0x40(%ebp)
 804936e:	83 45 d0 01          	addl   $0x1,-0x30(%ebp)
 8049372:	eb cf                	jmp    8049343 <_Z22create_graph_from_filev+0x3e0>
 8049374:	8b 45 b4             	mov    -0x4c(%ebp),%eax
 8049377:	39 45 c0             	cmp    %eax,-0x40(%ebp)
 804937a:	73 19                	jae    8049395 <_Z22create_graph_from_filev+0x432>
 804937c:	ff 75 e0             	pushl  -0x20(%ebp)
 804937f:	6a 01                	push   $0x1
 8049381:	6a 04                	push   $0x4
 8049383:	8d 45 9c             	lea    -0x64(%ebp),%eax
 8049386:	50                   	push   %eax
 8049387:	e8 d4 f4 ff ff       	call   8048860 <fread@plt>
 804938c:	83 c4 10             	add    $0x10,%esp
 804938f:	83 45 c0 01          	addl   $0x1,-0x40(%ebp)
 8049393:	eb df                	jmp    8049374 <_Z22create_graph_from_filev+0x411>
 8049395:	c7 45 d4 00 00 00 00 	movl   $0x0,-0x2c(%ebp)
 804939c:	a1 80 f0 04 08       	mov    0x804f080,%eax
 80493a1:	39 45 d4             	cmp    %eax,-0x2c(%ebp)
 80493a4:	73 27                	jae    80493cd <_Z22create_graph_from_filev+0x46a>
 80493a6:	a1 98 f0 04 08       	mov    0x804f098,%eax
 80493ab:	8b 55 d4             	mov    -0x2c(%ebp),%edx
 80493ae:	c1 e2 02             	shl    $0x2,%edx
 80493b1:	01 d0                	add    %edx,%eax
 80493b3:	ff 75 e0             	pushl  -0x20(%ebp)
 80493b6:	6a 01                	push   $0x1
 80493b8:	6a 04                	push   $0x4
 80493ba:	50                   	push   %eax
 80493bb:	e8 a0 f4 ff ff       	call   8048860 <fread@plt>
 80493c0:	83 c4 10             	add    $0x10,%esp
 80493c3:	83 45 c0 01          	addl   $0x1,-0x40(%ebp)
 80493c7:	83 45 d4 01          	addl   $0x1,-0x2c(%ebp)
 80493cb:	eb cf                	jmp    804939c <_Z22create_graph_from_filev+0x439>
 80493cd:	8b 45 b8             	mov    -0x48(%ebp),%eax
 80493d0:	39 45 c0             	cmp    %eax,-0x40(%ebp)
 80493d3:	73 19                	jae    80493ee <_Z22create_graph_from_filev+0x48b>
 80493d5:	ff 75 e0             	pushl  -0x20(%ebp)
 80493d8:	6a 01                	push   $0x1
 80493da:	6a 04                	push   $0x4
 80493dc:	8d 45 9c             	lea    -0x64(%ebp),%eax
 80493df:	50                   	push   %eax
 80493e0:	e8 7b f4 ff ff       	call   8048860 <fread@plt>
 80493e5:	83 c4 10             	add    $0x10,%esp
 80493e8:	83 45 c0 01          	addl   $0x1,-0x40(%ebp)
 80493ec:	eb df                	jmp    80493cd <_Z22create_graph_from_filev+0x46a>
 80493ee:	c7 45 d8 00 00 00 00 	movl   $0x0,-0x28(%ebp)
 80493f5:	a1 80 f0 04 08       	mov    0x804f080,%eax
 80493fa:	01 c0                	add    %eax,%eax
 80493fc:	3b 45 d8             	cmp    -0x28(%ebp),%eax
 80493ff:	0f 86 0a 01 00 00    	jbe    804950f <_Z22create_graph_from_filev+0x5ac>
 8049405:	a1 9c f0 04 08       	mov    0x804f09c,%eax
 804940a:	8b 55 d8             	mov    -0x28(%ebp),%edx
 804940d:	c1 e2 05             	shl    $0x5,%edx
 8049410:	01 d0                	add    %edx,%eax
 8049412:	ff 75 e0             	pushl  -0x20(%ebp)
 8049415:	6a 01                	push   $0x1
 8049417:	6a 04                	push   $0x4
 8049419:	50                   	push   %eax
 804941a:	e8 41 f4 ff ff       	call   8048860 <fread@plt>
 804941f:	83 c4 10             	add    $0x10,%esp
 8049422:	a1 9c f0 04 08       	mov    0x804f09c,%eax
 8049427:	8b 55 d8             	mov    -0x28(%ebp),%edx
 804942a:	c1 e2 05             	shl    $0x5,%edx
 804942d:	01 d0                	add    %edx,%eax
 804942f:	83 c0 04             	add    $0x4,%eax
 8049432:	ff 75 e0             	pushl  -0x20(%ebp)
 8049435:	6a 01                	push   $0x1
 8049437:	6a 04                	push   $0x4
 8049439:	50                   	push   %eax
 804943a:	e8 21 f4 ff ff       	call   8048860 <fread@plt>
 804943f:	83 c4 10             	add    $0x10,%esp
 8049442:	a1 9c f0 04 08       	mov    0x804f09c,%eax
 8049447:	8b 55 d8             	mov    -0x28(%ebp),%edx
 804944a:	c1 e2 05             	shl    $0x5,%edx
 804944d:	01 d0                	add    %edx,%eax
 804944f:	83 c0 08             	add    $0x8,%eax
 8049452:	ff 75 e0             	pushl  -0x20(%ebp)
 8049455:	6a 01                	push   $0x1
 8049457:	6a 04                	push   $0x4
 8049459:	50                   	push   %eax
 804945a:	e8 01 f4 ff ff       	call   8048860 <fread@plt>
 804945f:	83 c4 10             	add    $0x10,%esp
 8049462:	a1 9c f0 04 08       	mov    0x804f09c,%eax
 8049467:	8b 55 d8             	mov    -0x28(%ebp),%edx
 804946a:	c1 e2 05             	shl    $0x5,%edx
 804946d:	01 d0                	add    %edx,%eax
 804946f:	83 c0 0c             	add    $0xc,%eax
 8049472:	ff 75 e0             	pushl  -0x20(%ebp)
 8049475:	6a 01                	push   $0x1
 8049477:	6a 04                	push   $0x4
 8049479:	50                   	push   %eax
 804947a:	e8 e1 f3 ff ff       	call   8048860 <fread@plt>
 804947f:	83 c4 10             	add    $0x10,%esp
 8049482:	a1 9c f0 04 08       	mov    0x804f09c,%eax
 8049487:	8b 55 d8             	mov    -0x28(%ebp),%edx
 804948a:	c1 e2 05             	shl    $0x5,%edx
 804948d:	01 d0                	add    %edx,%eax
 804948f:	83 c0 10             	add    $0x10,%eax
 8049492:	ff 75 e0             	pushl  -0x20(%ebp)
 8049495:	6a 01                	push   $0x1
 8049497:	6a 04                	push   $0x4
 8049499:	50                   	push   %eax
 804949a:	e8 c1 f3 ff ff       	call   8048860 <fread@plt>
 804949f:	83 c4 10             	add    $0x10,%esp
 80494a2:	a1 9c f0 04 08       	mov    0x804f09c,%eax
 80494a7:	8b 55 d8             	mov    -0x28(%ebp),%edx
 80494aa:	c1 e2 05             	shl    $0x5,%edx
 80494ad:	01 d0                	add    %edx,%eax
 80494af:	83 c0 14             	add    $0x14,%eax
 80494b2:	ff 75 e0             	pushl  -0x20(%ebp)
 80494b5:	6a 01                	push   $0x1
 80494b7:	6a 04                	push   $0x4
 80494b9:	50                   	push   %eax
 80494ba:	e8 a1 f3 ff ff       	call   8048860 <fread@plt>
 80494bf:	83 c4 10             	add    $0x10,%esp
 80494c2:	a1 9c f0 04 08       	mov    0x804f09c,%eax
 80494c7:	8b 55 d8             	mov    -0x28(%ebp),%edx
 80494ca:	c1 e2 05             	shl    $0x5,%edx
 80494cd:	01 d0                	add    %edx,%eax
 80494cf:	83 c0 18             	add    $0x18,%eax
 80494d2:	ff 75 e0             	pushl  -0x20(%ebp)
 80494d5:	6a 01                	push   $0x1
 80494d7:	6a 04                	push   $0x4
 80494d9:	50                   	push   %eax
 80494da:	e8 81 f3 ff ff       	call   8048860 <fread@plt>
 80494df:	83 c4 10             	add    $0x10,%esp
 80494e2:	a1 9c f0 04 08       	mov    0x804f09c,%eax
 80494e7:	8b 55 d8             	mov    -0x28(%ebp),%edx
 80494ea:	c1 e2 05             	shl    $0x5,%edx
 80494ed:	01 d0                	add    %edx,%eax
 80494ef:	83 c0 1c             	add    $0x1c,%eax
 80494f2:	ff 75 e0             	pushl  -0x20(%ebp)
 80494f5:	6a 01                	push   $0x1
 80494f7:	6a 04                	push   $0x4
 80494f9:	50                   	push   %eax
 80494fa:	e8 61 f3 ff ff       	call   8048860 <fread@plt>
 80494ff:	83 c4 10             	add    $0x10,%esp
 8049502:	83 45 c0 08          	addl   $0x8,-0x40(%ebp)
 8049506:	83 45 d8 01          	addl   $0x1,-0x28(%ebp)
 804950a:	e9 e6 fe ff ff       	jmp    80493f5 <_Z22create_graph_from_filev+0x492>
 804950f:	8b 45 bc             	mov    -0x44(%ebp),%eax
 8049512:	39 45 c0             	cmp    %eax,-0x40(%ebp)
 8049515:	73 19                	jae    8049530 <_Z22create_graph_from_filev+0x5cd>
 8049517:	ff 75 e0             	pushl  -0x20(%ebp)
 804951a:	6a 01                	push   $0x1
 804951c:	6a 04                	push   $0x4
 804951e:	8d 45 9c             	lea    -0x64(%ebp),%eax
 8049521:	50                   	push   %eax
 8049522:	e8 39 f3 ff ff       	call   8048860 <fread@plt>
 8049527:	83 c4 10             	add    $0x10,%esp
 804952a:	83 45 c0 01          	addl   $0x1,-0x40(%ebp)
 804952e:	eb df                	jmp    804950f <_Z22create_graph_from_filev+0x5ac>
 8049530:	c7 45 dc 00 00 00 00 	movl   $0x0,-0x24(%ebp)
 8049537:	a1 80 f0 04 08       	mov    0x804f080,%eax
 804953c:	01 c0                	add    %eax,%eax
 804953e:	3b 45 dc             	cmp    -0x24(%ebp),%eax
 8049541:	0f 86 0a 01 00 00    	jbe    8049651 <_Z22create_graph_from_filev+0x6ee>
 8049547:	a1 a0 f0 04 08       	mov    0x804f0a0,%eax
 804954c:	8b 55 dc             	mov    -0x24(%ebp),%edx
 804954f:	c1 e2 05             	shl    $0x5,%edx
 8049552:	01 d0                	add    %edx,%eax
 8049554:	ff 75 e0             	pushl  -0x20(%ebp)
 8049557:	6a 01                	push   $0x1
 8049559:	6a 04                	push   $0x4
 804955b:	50                   	push   %eax
 804955c:	e8 ff f2 ff ff       	call   8048860 <fread@plt>
 8049561:	83 c4 10             	add    $0x10,%esp
 8049564:	a1 a0 f0 04 08       	mov    0x804f0a0,%eax
 8049569:	8b 55 dc             	mov    -0x24(%ebp),%edx
 804956c:	c1 e2 05             	shl    $0x5,%edx
 804956f:	01 d0                	add    %edx,%eax
 8049571:	83 c0 04             	add    $0x4,%eax
 8049574:	ff 75 e0             	pushl  -0x20(%ebp)
 8049577:	6a 01                	push   $0x1
 8049579:	6a 04                	push   $0x4
 804957b:	50                   	push   %eax
 804957c:	e8 df f2 ff ff       	call   8048860 <fread@plt>
 8049581:	83 c4 10             	add    $0x10,%esp
 8049584:	a1 a0 f0 04 08       	mov    0x804f0a0,%eax
 8049589:	8b 55 dc             	mov    -0x24(%ebp),%edx
 804958c:	c1 e2 05             	shl    $0x5,%edx
 804958f:	01 d0                	add    %edx,%eax
 8049591:	83 c0 08             	add    $0x8,%eax
 8049594:	ff 75 e0             	pushl  -0x20(%ebp)
 8049597:	6a 01                	push   $0x1
 8049599:	6a 04                	push   $0x4
 804959b:	50                   	push   %eax
 804959c:	e8 bf f2 ff ff       	call   8048860 <fread@plt>
 80495a1:	83 c4 10             	add    $0x10,%esp
 80495a4:	a1 a0 f0 04 08       	mov    0x804f0a0,%eax
 80495a9:	8b 55 dc             	mov    -0x24(%ebp),%edx
 80495ac:	c1 e2 05             	shl    $0x5,%edx
 80495af:	01 d0                	add    %edx,%eax
 80495b1:	83 c0 0c             	add    $0xc,%eax
 80495b4:	ff 75 e0             	pushl  -0x20(%ebp)
 80495b7:	6a 01                	push   $0x1
 80495b9:	6a 04                	push   $0x4
 80495bb:	50                   	push   %eax
 80495bc:	e8 9f f2 ff ff       	call   8048860 <fread@plt>
 80495c1:	83 c4 10             	add    $0x10,%esp
 80495c4:	a1 a0 f0 04 08       	mov    0x804f0a0,%eax
 80495c9:	8b 55 dc             	mov    -0x24(%ebp),%edx
 80495cc:	c1 e2 05             	shl    $0x5,%edx
 80495cf:	01 d0                	add    %edx,%eax
 80495d1:	83 c0 10             	add    $0x10,%eax
 80495d4:	ff 75 e0             	pushl  -0x20(%ebp)
 80495d7:	6a 01                	push   $0x1
 80495d9:	6a 04                	push   $0x4
 80495db:	50                   	push   %eax
 80495dc:	e8 7f f2 ff ff       	call   8048860 <fread@plt>
 80495e1:	83 c4 10             	add    $0x10,%esp
 80495e4:	a1 a0 f0 04 08       	mov    0x804f0a0,%eax
 80495e9:	8b 55 dc             	mov    -0x24(%ebp),%edx
 80495ec:	c1 e2 05             	shl    $0x5,%edx
 80495ef:	01 d0                	add    %edx,%eax
 80495f1:	83 c0 14             	add    $0x14,%eax
 80495f4:	ff 75 e0             	pushl  -0x20(%ebp)
 80495f7:	6a 01                	push   $0x1
 80495f9:	6a 04                	push   $0x4
 80495fb:	50                   	push   %eax
 80495fc:	e8 5f f2 ff ff       	call   8048860 <fread@plt>
 8049601:	83 c4 10             	add    $0x10,%esp
 8049604:	a1 a0 f0 04 08       	mov    0x804f0a0,%eax
 8049609:	8b 55 dc             	mov    -0x24(%ebp),%edx
 804960c:	c1 e2 05             	shl    $0x5,%edx
 804960f:	01 d0                	add    %edx,%eax
 8049611:	83 c0 18             	add    $0x18,%eax
 8049614:	ff 75 e0             	pushl  -0x20(%ebp)
 8049617:	6a 01                	push   $0x1
 8049619:	6a 04                	push   $0x4
 804961b:	50                   	push   %eax
 804961c:	e8 3f f2 ff ff       	call   8048860 <fread@plt>
 8049621:	83 c4 10             	add    $0x10,%esp
 8049624:	a1 a0 f0 04 08       	mov    0x804f0a0,%eax
 8049629:	8b 55 dc             	mov    -0x24(%ebp),%edx
 804962c:	c1 e2 05             	shl    $0x5,%edx
 804962f:	01 d0                	add    %edx,%eax
 8049631:	83 c0 1c             	add    $0x1c,%eax
 8049634:	ff 75 e0             	pushl  -0x20(%ebp)
 8049637:	6a 01                	push   $0x1
 8049639:	6a 04                	push   $0x4
 804963b:	50                   	push   %eax
 804963c:	e8 1f f2 ff ff       	call   8048860 <fread@plt>
 8049641:	83 c4 10             	add    $0x10,%esp
 8049644:	83 45 c0 08          	addl   $0x8,-0x40(%ebp)
 8049648:	83 45 dc 01          	addl   $0x1,-0x24(%ebp)
 804964c:	e9 e6 fe ff ff       	jmp    8049537 <_Z22create_graph_from_filev+0x5d4>
 8049651:	83 ec 0c             	sub    $0xc,%esp
 8049654:	ff 75 e0             	pushl  -0x20(%ebp)
 8049657:	e8 64 f1 ff ff       	call   80487c0 <fclose@plt>
 804965c:	83 c4 10             	add    $0x10,%esp
 804965f:	90                   	nop
 8049660:	8b 45 e4             	mov    -0x1c(%ebp),%eax
 8049663:	65 33 05 14 00 00 00 	xor    %gs:0x14,%eax
 804966a:	74 05                	je     8049671 <_Z22create_graph_from_filev+0x70e>
 804966c:	e8 8f f1 ff ff       	call   8048800 <__stack_chk_fail@plt>
 8049671:	8d 65 f4             	lea    -0xc(%ebp),%esp
 8049674:	5b                   	pop    %ebx
 8049675:	5e                   	pop    %esi
 8049676:	5f                   	pop    %edi
 8049677:	5d                   	pop    %ebp
 8049678:	c3                   	ret    

08049679 <_Z11print_graphv>:
 8049679:	55                   	push   %ebp
 804967a:	89 e5                	mov    %esp,%ebp
 804967c:	83 ec 28             	sub    $0x28,%esp
 804967f:	83 ec 0c             	sub    $0xc,%esp
 8049682:	68 9c bd 04 08       	push   $0x804bd9c
 8049687:	e8 54 f1 ff ff       	call   80487e0 <printf@plt>
 804968c:	83 c4 10             	add    $0x10,%esp
 804968f:	c7 45 dc 00 00 00 00 	movl   $0x0,-0x24(%ebp)
 8049696:	a1 7c f0 04 08       	mov    0x804f07c,%eax
 804969b:	83 c0 01             	add    $0x1,%eax
 804969e:	3b 45 dc             	cmp    -0x24(%ebp),%eax
 80496a1:	76 26                	jbe    80496c9 <_Z11print_graphv+0x50>
 80496a3:	a1 88 f0 04 08       	mov    0x804f088,%eax
 80496a8:	8b 55 dc             	mov    -0x24(%ebp),%edx
 80496ab:	c1 e2 02             	shl    $0x2,%edx
 80496ae:	01 d0                	add    %edx,%eax
 80496b0:	8b 00                	mov    (%eax),%eax
 80496b2:	83 ec 08             	sub    $0x8,%esp
 80496b5:	50                   	push   %eax
 80496b6:	68 ab bd 04 08       	push   $0x804bdab
 80496bb:	e8 20 f1 ff ff       	call   80487e0 <printf@plt>
 80496c0:	83 c4 10             	add    $0x10,%esp
 80496c3:	83 45 dc 01          	addl   $0x1,-0x24(%ebp)
 80496c7:	eb cd                	jmp    8049696 <_Z11print_graphv+0x1d>
 80496c9:	83 ec 0c             	sub    $0xc,%esp
 80496cc:	6a 0a                	push   $0xa
 80496ce:	e8 cd f0 ff ff       	call   80487a0 <putchar@plt>
 80496d3:	83 c4 10             	add    $0x10,%esp
 80496d6:	83 ec 0c             	sub    $0xc,%esp
 80496d9:	68 af bd 04 08       	push   $0x804bdaf
 80496de:	e8 fd f0 ff ff       	call   80487e0 <printf@plt>
 80496e3:	83 c4 10             	add    $0x10,%esp
 80496e6:	c7 45 e0 00 00 00 00 	movl   $0x0,-0x20(%ebp)
 80496ed:	a1 80 f0 04 08       	mov    0x804f080,%eax
 80496f2:	39 45 e0             	cmp    %eax,-0x20(%ebp)
 80496f5:	73 26                	jae    804971d <_Z11print_graphv+0xa4>
 80496f7:	a1 8c f0 04 08       	mov    0x804f08c,%eax
 80496fc:	8b 55 e0             	mov    -0x20(%ebp),%edx
 80496ff:	c1 e2 02             	shl    $0x2,%edx
 8049702:	01 d0                	add    %edx,%eax
 8049704:	8b 00                	mov    (%eax),%eax
 8049706:	83 ec 08             	sub    $0x8,%esp
 8049709:	50                   	push   %eax
 804970a:	68 ab bd 04 08       	push   $0x804bdab
 804970f:	e8 cc f0 ff ff       	call   80487e0 <printf@plt>
 8049714:	83 c4 10             	add    $0x10,%esp
 8049717:	83 45 e0 01          	addl   $0x1,-0x20(%ebp)
 804971b:	eb d0                	jmp    80496ed <_Z11print_graphv+0x74>
 804971d:	83 ec 0c             	sub    $0xc,%esp
 8049720:	6a 0a                	push   $0xa
 8049722:	e8 79 f0 ff ff       	call   80487a0 <putchar@plt>
 8049727:	83 c4 10             	add    $0x10,%esp
 804972a:	83 ec 0c             	sub    $0xc,%esp
 804972d:	68 bb bd 04 08       	push   $0x804bdbb
 8049732:	e8 a9 f0 ff ff       	call   80487e0 <printf@plt>
 8049737:	83 c4 10             	add    $0x10,%esp
 804973a:	c7 45 e4 00 00 00 00 	movl   $0x0,-0x1c(%ebp)
 8049741:	a1 7c f0 04 08       	mov    0x804f07c,%eax
 8049746:	83 c0 01             	add    $0x1,%eax
 8049749:	3b 45 e4             	cmp    -0x1c(%ebp),%eax
 804974c:	76 26                	jbe    8049774 <_Z11print_graphv+0xfb>
 804974e:	a1 90 f0 04 08       	mov    0x804f090,%eax
 8049753:	8b 55 e4             	mov    -0x1c(%ebp),%edx
 8049756:	c1 e2 02             	shl    $0x2,%edx
 8049759:	01 d0                	add    %edx,%eax
 804975b:	8b 00                	mov    (%eax),%eax
 804975d:	83 ec 08             	sub    $0x8,%esp
 8049760:	50                   	push   %eax
 8049761:	68 ab bd 04 08       	push   $0x804bdab
 8049766:	e8 75 f0 ff ff       	call   80487e0 <printf@plt>
 804976b:	83 c4 10             	add    $0x10,%esp
 804976e:	83 45 e4 01          	addl   $0x1,-0x1c(%ebp)
 8049772:	eb cd                	jmp    8049741 <_Z11print_graphv+0xc8>
 8049774:	83 ec 0c             	sub    $0xc,%esp
 8049777:	6a 0a                	push   $0xa
 8049779:	e8 22 f0 ff ff       	call   80487a0 <putchar@plt>
 804977e:	83 c4 10             	add    $0x10,%esp
 8049781:	83 ec 0c             	sub    $0xc,%esp
 8049784:	68 d2 bd 04 08       	push   $0x804bdd2
 8049789:	e8 52 f0 ff ff       	call   80487e0 <printf@plt>
 804978e:	83 c4 10             	add    $0x10,%esp
 8049791:	c7 45 e8 00 00 00 00 	movl   $0x0,-0x18(%ebp)
 8049798:	a1 80 f0 04 08       	mov    0x804f080,%eax
 804979d:	39 45 e8             	cmp    %eax,-0x18(%ebp)
 80497a0:	73 26                	jae    80497c8 <_Z11print_graphv+0x14f>
 80497a2:	a1 94 f0 04 08       	mov    0x804f094,%eax
 80497a7:	8b 55 e8             	mov    -0x18(%ebp),%edx
 80497aa:	c1 e2 02             	shl    $0x2,%edx
 80497ad:	01 d0                	add    %edx,%eax
 80497af:	8b 00                	mov    (%eax),%eax
 80497b1:	83 ec 08             	sub    $0x8,%esp
 80497b4:	50                   	push   %eax
 80497b5:	68 ab bd 04 08       	push   $0x804bdab
 80497ba:	e8 21 f0 ff ff       	call   80487e0 <printf@plt>
 80497bf:	83 c4 10             	add    $0x10,%esp
 80497c2:	83 45 e8 01          	addl   $0x1,-0x18(%ebp)
 80497c6:	eb d0                	jmp    8049798 <_Z11print_graphv+0x11f>
 80497c8:	83 ec 0c             	sub    $0xc,%esp
 80497cb:	6a 0a                	push   $0xa
 80497cd:	e8 ce ef ff ff       	call   80487a0 <putchar@plt>
 80497d2:	83 c4 10             	add    $0x10,%esp
 80497d5:	83 ec 0c             	sub    $0xc,%esp
 80497d8:	68 e6 bd 04 08       	push   $0x804bde6
 80497dd:	e8 fe ef ff ff       	call   80487e0 <printf@plt>
 80497e2:	83 c4 10             	add    $0x10,%esp
 80497e5:	c7 45 ec 00 00 00 00 	movl   $0x0,-0x14(%ebp)
 80497ec:	a1 80 f0 04 08       	mov    0x804f080,%eax
 80497f1:	39 45 ec             	cmp    %eax,-0x14(%ebp)
 80497f4:	73 26                	jae    804981c <_Z11print_graphv+0x1a3>
 80497f6:	a1 98 f0 04 08       	mov    0x804f098,%eax
 80497fb:	8b 55 ec             	mov    -0x14(%ebp),%edx
 80497fe:	c1 e2 02             	shl    $0x2,%edx
 8049801:	01 d0                	add    %edx,%eax
 8049803:	8b 00                	mov    (%eax),%eax
 8049805:	83 ec 08             	sub    $0x8,%esp
 8049808:	50                   	push   %eax
 8049809:	68 ab bd 04 08       	push   $0x804bdab
 804980e:	e8 cd ef ff ff       	call   80487e0 <printf@plt>
 8049813:	83 c4 10             	add    $0x10,%esp
 8049816:	83 45 ec 01          	addl   $0x1,-0x14(%ebp)
 804981a:	eb d0                	jmp    80497ec <_Z11print_graphv+0x173>
 804981c:	83 ec 0c             	sub    $0xc,%esp
 804981f:	6a 0a                	push   $0xa
 8049821:	e8 7a ef ff ff       	call   80487a0 <putchar@plt>
 8049826:	83 c4 10             	add    $0x10,%esp
 8049829:	c7 45 f0 00 00 00 00 	movl   $0x0,-0x10(%ebp)
 8049830:	a1 80 f0 04 08       	mov    0x804f080,%eax
 8049835:	01 c0                	add    %eax,%eax
 8049837:	3b 45 f0             	cmp    -0x10(%ebp),%eax
 804983a:	76 67                	jbe    80498a3 <_Z11print_graphv+0x22a>
 804983c:	a1 9c f0 04 08       	mov    0x804f09c,%eax
 8049841:	8b 55 f0             	mov    -0x10(%ebp),%edx
 8049844:	c1 e2 05             	shl    $0x5,%edx
 8049847:	01 d0                	add    %edx,%eax
 8049849:	d9 40 0c             	flds   0xc(%eax)
 804984c:	a1 9c f0 04 08       	mov    0x804f09c,%eax
 8049851:	8b 55 f0             	mov    -0x10(%ebp),%edx
 8049854:	c1 e2 05             	shl    $0x5,%edx
 8049857:	01 d0                	add    %edx,%eax
 8049859:	d9 40 08             	flds   0x8(%eax)
 804985c:	d9 c9                	fxch   %st(1)
 804985e:	a1 9c f0 04 08       	mov    0x804f09c,%eax
 8049863:	8b 55 f0             	mov    -0x10(%ebp),%edx
 8049866:	c1 e2 05             	shl    $0x5,%edx
 8049869:	01 d0                	add    %edx,%eax
 804986b:	8b 50 04             	mov    0x4(%eax),%edx
 804986e:	a1 9c f0 04 08       	mov    0x804f09c,%eax
 8049873:	8b 4d f0             	mov    -0x10(%ebp),%ecx
 8049876:	c1 e1 05             	shl    $0x5,%ecx
 8049879:	01 c8                	add    %ecx,%eax
 804987b:	8b 00                	mov    (%eax),%eax
 804987d:	8d 64 24 f8          	lea    -0x8(%esp),%esp
 8049881:	dd 1c 24             	fstpl  (%esp)
 8049884:	8d 64 24 f8          	lea    -0x8(%esp),%esp
 8049888:	dd 1c 24             	fstpl  (%esp)
 804988b:	52                   	push   %edx
 804988c:	50                   	push   %eax
 804988d:	ff 75 f0             	pushl  -0x10(%ebp)
 8049890:	68 f8 bd 04 08       	push   $0x804bdf8
 8049895:	e8 46 ef ff ff       	call   80487e0 <printf@plt>
 804989a:	83 c4 20             	add    $0x20,%esp
 804989d:	83 45 f0 01          	addl   $0x1,-0x10(%ebp)
 80498a1:	eb 8d                	jmp    8049830 <_Z11print_graphv+0x1b7>
 80498a3:	83 ec 0c             	sub    $0xc,%esp
 80498a6:	6a 0a                	push   $0xa
 80498a8:	e8 f3 ee ff ff       	call   80487a0 <putchar@plt>
 80498ad:	83 c4 10             	add    $0x10,%esp
 80498b0:	c7 45 f4 00 00 00 00 	movl   $0x0,-0xc(%ebp)
 80498b7:	a1 80 f0 04 08       	mov    0x804f080,%eax
 80498bc:	01 c0                	add    %eax,%eax
 80498be:	3b 45 f4             	cmp    -0xc(%ebp),%eax
 80498c1:	76 67                	jbe    804992a <_Z11print_graphv+0x2b1>
 80498c3:	a1 a0 f0 04 08       	mov    0x804f0a0,%eax
 80498c8:	8b 55 f4             	mov    -0xc(%ebp),%edx
 80498cb:	c1 e2 05             	shl    $0x5,%edx
 80498ce:	01 d0                	add    %edx,%eax
 80498d0:	d9 40 0c             	flds   0xc(%eax)
 80498d3:	a1 a0 f0 04 08       	mov    0x804f0a0,%eax
 80498d8:	8b 55 f4             	mov    -0xc(%ebp),%edx
 80498db:	c1 e2 05             	shl    $0x5,%edx
 80498de:	01 d0                	add    %edx,%eax
 80498e0:	d9 40 08             	flds   0x8(%eax)
 80498e3:	d9 c9                	fxch   %st(1)
 80498e5:	a1 a0 f0 04 08       	mov    0x804f0a0,%eax
 80498ea:	8b 55 f4             	mov    -0xc(%ebp),%edx
 80498ed:	c1 e2 05             	shl    $0x5,%edx
 80498f0:	01 d0                	add    %edx,%eax
 80498f2:	8b 50 04             	mov    0x4(%eax),%edx
 80498f5:	a1 a0 f0 04 08       	mov    0x804f0a0,%eax
 80498fa:	8b 4d f4             	mov    -0xc(%ebp),%ecx
 80498fd:	c1 e1 05             	shl    $0x5,%ecx
 8049900:	01 c8                	add    %ecx,%eax
 8049902:	8b 00                	mov    (%eax),%eax
 8049904:	8d 64 24 f8          	lea    -0x8(%esp),%esp
 8049908:	dd 1c 24             	fstpl  (%esp)
 804990b:	8d 64 24 f8          	lea    -0x8(%esp),%esp
 804990f:	dd 1c 24             	fstpl  (%esp)
 8049912:	52                   	push   %edx
 8049913:	50                   	push   %eax
 8049914:	ff 75 f4             	pushl  -0xc(%ebp)
 8049917:	68 1c be 04 08       	push   $0x804be1c
 804991c:	e8 bf ee ff ff       	call   80487e0 <printf@plt>
 8049921:	83 c4 20             	add    $0x20,%esp
 8049924:	83 45 f4 01          	addl   $0x1,-0xc(%ebp)
 8049928:	eb 8d                	jmp    80498b7 <_Z11print_graphv+0x23e>
 804992a:	83 ec 0c             	sub    $0xc,%esp
 804992d:	6a 0a                	push   $0xa
 804992f:	e8 6c ee ff ff       	call   80487a0 <putchar@plt>
 8049934:	83 c4 10             	add    $0x10,%esp
 8049937:	90                   	nop
 8049938:	c9                   	leave  
 8049939:	c3                   	ret    

0804993a <_Z9init_taskj>:
 804993a:	55                   	push   %ebp
 804993b:	89 e5                	mov    %esp,%ebp
 804993d:	83 ec 18             	sub    $0x18,%esp
 8049940:	83 ec 0c             	sub    $0xc,%esp
 8049943:	68 49 be 04 08       	push   $0x804be49
 8049948:	e8 d3 ee ff ff       	call   8048820 <puts@plt>
 804994d:	83 c4 10             	add    $0x10,%esp
 8049950:	c7 45 f4 00 00 00 00 	movl   $0x0,-0xc(%ebp)
 8049957:	a1 80 f0 04 08       	mov    0x804f080,%eax
 804995c:	01 c0                	add    %eax,%eax
 804995e:	3b 45 f4             	cmp    -0xc(%ebp),%eax
 8049961:	76 22                	jbe    8049985 <_Z9init_taskj+0x4b>
 8049963:	8b 55 08             	mov    0x8(%ebp),%edx
 8049966:	8b 45 f4             	mov    -0xc(%ebp),%eax
 8049969:	01 d0                	add    %edx,%eax
 804996b:	83 c0 01             	add    $0x1,%eax
 804996e:	83 ec 04             	sub    $0x4,%esp
 8049971:	ff 75 f4             	pushl  -0xc(%ebp)
 8049974:	50                   	push   %eax
 8049975:	6a 01                	push   $0x1
 8049977:	e8 c5 f0 ff ff       	call   8048a41 <_Z13enq_task_arg0jjj>
 804997c:	83 c4 10             	add    $0x10,%esp
 804997f:	83 45 f4 01          	addl   $0x1,-0xc(%ebp)
 8049983:	eb d2                	jmp    8049957 <_Z9init_taskj+0x1d>
 8049985:	83 ec 0c             	sub    $0xc,%esp
 8049988:	6a 0a                	push   $0xa
 804998a:	e8 11 ee ff ff       	call   80487a0 <putchar@plt>
 804998f:	83 c4 10             	add    $0x10,%esp
 8049992:	90                   	nop
 8049993:	c9                   	leave  
 8049994:	c3                   	ret    

08049995 <_Z19enqueue_update_taskjj>:
 8049995:	55                   	push   %ebp
 8049996:	89 e5                	mov    %esp,%ebp
 8049998:	83 ec 28             	sub    $0x28,%esp
 804999b:	83 ec 08             	sub    $0x8,%esp
 804999e:	ff 75 0c             	pushl  0xc(%ebp)
 80499a1:	68 54 be 04 08       	push   $0x804be54
 80499a6:	e8 35 ee ff ff       	call   80487e0 <printf@plt>
 80499ab:	83 c4 10             	add    $0x10,%esp
 80499ae:	a1 9c f0 04 08       	mov    0x804f09c,%eax
 80499b3:	8b 55 0c             	mov    0xc(%ebp),%edx
 80499b6:	c1 e2 05             	shl    $0x5,%edx
 80499b9:	01 d0                	add    %edx,%eax
 80499bb:	8d 50 10             	lea    0x10(%eax),%edx
 80499be:	a1 9c f0 04 08       	mov    0x804f09c,%eax
 80499c3:	8b 4d 0c             	mov    0xc(%ebp),%ecx
 80499c6:	c1 e1 05             	shl    $0x5,%ecx
 80499c9:	01 c8                	add    %ecx,%eax
 80499cb:	83 c0 08             	add    $0x8,%eax
 80499ce:	83 ec 08             	sub    $0x8,%esp
 80499d1:	52                   	push   %edx
 80499d2:	50                   	push   %eax
 80499d3:	e8 4c 08 00 00       	call   804a224 <_Z8distancePfS_>
 80499d8:	83 c4 10             	add    $0x10,%esp
 80499db:	d9 5d e4             	fstps  -0x1c(%ebp)
 80499de:	8b 45 e4             	mov    -0x1c(%ebp),%eax
 80499e1:	89 45 f0             	mov    %eax,-0x10(%ebp)
 80499e4:	d9 05 84 f0 04 08    	flds   0x804f084
 80499ea:	d9 45 f0             	flds   -0x10(%ebp)
 80499ed:	df e9                	fucomip %st(1),%st
 80499ef:	dd d8                	fstp   %st(0)
 80499f1:	76 4a                	jbe    8049a3d <_Z19enqueue_update_taskjj+0xa8>
 80499f3:	83 ec 0c             	sub    $0xc,%esp
 80499f6:	ff 75 f0             	pushl  -0x10(%ebp)
 80499f9:	e8 b0 07 00 00       	call   804a1ae <_Z9timestampf>
 80499fe:	83 c4 10             	add    $0x10,%esp
 8049a01:	89 45 f4             	mov    %eax,-0xc(%ebp)
 8049a04:	a1 9c f0 04 08       	mov    0x804f09c,%eax
 8049a09:	8b 55 0c             	mov    0xc(%ebp),%edx
 8049a0c:	c1 e2 05             	shl    $0x5,%edx
 8049a0f:	01 d0                	add    %edx,%eax
 8049a11:	83 c0 14             	add    $0x14,%eax
 8049a14:	8b 10                	mov    (%eax),%edx
 8049a16:	a1 9c f0 04 08       	mov    0x804f09c,%eax
 8049a1b:	8b 4d 0c             	mov    0xc(%ebp),%ecx
 8049a1e:	c1 e1 05             	shl    $0x5,%ecx
 8049a21:	01 c8                	add    %ecx,%eax
 8049a23:	83 c0 10             	add    $0x10,%eax
 8049a26:	8b 00                	mov    (%eax),%eax
 8049a28:	83 ec 0c             	sub    $0xc,%esp
 8049a2b:	52                   	push   %edx
 8049a2c:	50                   	push   %eax
 8049a2d:	ff 75 0c             	pushl  0xc(%ebp)
 8049a30:	ff 75 f4             	pushl  -0xc(%ebp)
 8049a33:	6a 03                	push   $0x3
 8049a35:	e8 52 f0 ff ff       	call   8048a8c <_Z13enq_task_arg2jjjjj>
 8049a3a:	83 c4 20             	add    $0x20,%esp
 8049a3d:	83 ec 0c             	sub    $0xc,%esp
 8049a40:	6a 0a                	push   $0xa
 8049a42:	e8 59 ed ff ff       	call   80487a0 <putchar@plt>
 8049a47:	83 c4 10             	add    $0x10,%esp
 8049a4a:	90                   	nop
 8049a4b:	c9                   	leave  
 8049a4c:	c3                   	ret    

08049a4d <_Z19update_message_taskjjjj>:
 8049a4d:	55                   	push   %ebp
 8049a4e:	89 e5                	mov    %esp,%ebp
 8049a50:	83 ec 48             	sub    $0x48,%esp
 8049a53:	65 a1 14 00 00 00    	mov    %gs:0x14,%eax
 8049a59:	89 45 f4             	mov    %eax,-0xc(%ebp)
 8049a5c:	31 c0                	xor    %eax,%eax
 8049a5e:	83 ec 08             	sub    $0x8,%esp
 8049a61:	ff 75 0c             	pushl  0xc(%ebp)
 8049a64:	68 72 be 04 08       	push   $0x804be72
 8049a69:	e8 72 ed ff ff       	call   80487e0 <printf@plt>
 8049a6e:	83 c4 10             	add    $0x10,%esp
 8049a71:	8d 45 10             	lea    0x10(%ebp),%eax
 8049a74:	d9 00                	flds   (%eax)
 8049a76:	d9 5d dc             	fstps  -0x24(%ebp)
 8049a79:	8d 45 14             	lea    0x14(%ebp),%eax
 8049a7c:	d9 00                	flds   (%eax)
 8049a7e:	d9 5d e0             	fstps  -0x20(%ebp)
 8049a81:	a1 9c f0 04 08       	mov    0x804f09c,%eax
 8049a86:	8b 55 0c             	mov    0xc(%ebp),%edx
 8049a89:	c1 e2 05             	shl    $0x5,%edx
 8049a8c:	01 d0                	add    %edx,%eax
 8049a8e:	d9 40 10             	flds   0x10(%eax)
 8049a91:	d9 45 dc             	flds   -0x24(%ebp)
 8049a94:	db e9                	fucomi %st(1),%st
 8049a96:	7a 25                	jp     8049abd <_Z19update_message_taskjjjj+0x70>
 8049a98:	df e9                	fucomip %st(1),%st
 8049a9a:	dd d8                	fstp   %st(0)
 8049a9c:	75 29                	jne    8049ac7 <_Z19update_message_taskjjjj+0x7a>
 8049a9e:	a1 9c f0 04 08       	mov    0x804f09c,%eax
 8049aa3:	8b 55 0c             	mov    0xc(%ebp),%edx
 8049aa6:	c1 e2 05             	shl    $0x5,%edx
 8049aa9:	01 d0                	add    %edx,%eax
 8049aab:	d9 40 14             	flds   0x14(%eax)
 8049aae:	d9 45 e0             	flds   -0x20(%ebp)
 8049ab1:	db e9                	fucomi %st(1),%st
 8049ab3:	7a 0e                	jp     8049ac3 <_Z19update_message_taskjjjj+0x76>
 8049ab5:	df e9                	fucomip %st(1),%st
 8049ab7:	dd d8                	fstp   %st(0)
 8049ab9:	74 21                	je     8049adc <_Z19update_message_taskjjjj+0x8f>
 8049abb:	eb 0a                	jmp    8049ac7 <_Z19update_message_taskjjjj+0x7a>
 8049abd:	dd d8                	fstp   %st(0)
 8049abf:	dd d8                	fstp   %st(0)
 8049ac1:	eb 04                	jmp    8049ac7 <_Z19update_message_taskjjjj+0x7a>
 8049ac3:	dd d8                	fstp   %st(0)
 8049ac5:	dd d8                	fstp   %st(0)
 8049ac7:	83 ec 0c             	sub    $0xc,%esp
 8049aca:	68 90 be 04 08       	push   $0x804be90
 8049acf:	e8 4c ed ff ff       	call   8048820 <puts@plt>
 8049ad4:	83 c4 10             	add    $0x10,%esp
 8049ad7:	e9 3f 02 00 00       	jmp    8049d1b <_Z19update_message_taskjjjj+0x2ce>
 8049adc:	a1 9c f0 04 08       	mov    0x804f09c,%eax
 8049ae1:	8b 55 0c             	mov    0xc(%ebp),%edx
 8049ae4:	c1 e2 05             	shl    $0x5,%edx
 8049ae7:	01 d0                	add    %edx,%eax
 8049ae9:	d9 40 08             	flds   0x8(%eax)
 8049aec:	d9 5d e4             	fstps  -0x1c(%ebp)
 8049aef:	a1 9c f0 04 08       	mov    0x804f09c,%eax
 8049af4:	8b 55 0c             	mov    0xc(%ebp),%edx
 8049af7:	c1 e2 05             	shl    $0x5,%edx
 8049afa:	01 d0                	add    %edx,%eax
 8049afc:	d9 45 dc             	flds   -0x24(%ebp)
 8049aff:	d9 58 08             	fstps  0x8(%eax)
 8049b02:	8d 45 e4             	lea    -0x1c(%ebp),%eax
 8049b05:	8b 00                	mov    (%eax),%eax
 8049b07:	8b 15 9c f0 04 08    	mov    0x804f09c,%edx
 8049b0d:	8b 4d 0c             	mov    0xc(%ebp),%ecx
 8049b10:	c1 e1 05             	shl    $0x5,%ecx
 8049b13:	01 ca                	add    %ecx,%edx
 8049b15:	83 c2 08             	add    $0x8,%edx
 8049b18:	83 ec 08             	sub    $0x8,%esp
 8049b1b:	50                   	push   %eax
 8049b1c:	52                   	push   %edx
 8049b1d:	e8 85 ee ff ff       	call   80489a7 <_Z14undo_log_writePjj>
 8049b22:	83 c4 10             	add    $0x10,%esp
 8049b25:	a1 9c f0 04 08       	mov    0x804f09c,%eax
 8049b2a:	8b 55 0c             	mov    0xc(%ebp),%edx
 8049b2d:	c1 e2 05             	shl    $0x5,%edx
 8049b30:	01 d0                	add    %edx,%eax
 8049b32:	d9 40 0c             	flds   0xc(%eax)
 8049b35:	d9 5d e8             	fstps  -0x18(%ebp)
 8049b38:	a1 9c f0 04 08       	mov    0x804f09c,%eax
 8049b3d:	8b 55 0c             	mov    0xc(%ebp),%edx
 8049b40:	c1 e2 05             	shl    $0x5,%edx
 8049b43:	01 d0                	add    %edx,%eax
 8049b45:	d9 45 e0             	flds   -0x20(%ebp)
 8049b48:	d9 58 0c             	fstps  0xc(%eax)
 8049b4b:	8d 45 e4             	lea    -0x1c(%ebp),%eax
 8049b4e:	83 c0 04             	add    $0x4,%eax
 8049b51:	8b 00                	mov    (%eax),%eax
 8049b53:	8b 15 9c f0 04 08    	mov    0x804f09c,%edx
 8049b59:	8b 4d 0c             	mov    0xc(%ebp),%ecx
 8049b5c:	c1 e1 05             	shl    $0x5,%ecx
 8049b5f:	01 ca                	add    %ecx,%edx
 8049b61:	83 c2 0c             	add    $0xc,%edx
 8049b64:	83 ec 08             	sub    $0x8,%esp
 8049b67:	50                   	push   %eax
 8049b68:	52                   	push   %edx
 8049b69:	e8 39 ee ff ff       	call   80489a7 <_Z14undo_log_writePjj>
 8049b6e:	83 c4 10             	add    $0x10,%esp
 8049b71:	d9 45 e8             	flds   -0x18(%ebp)
 8049b74:	d9 45 e4             	flds   -0x1c(%ebp)
 8049b77:	d9 c9                	fxch   %st(1)
 8049b79:	83 ec 0c             	sub    $0xc,%esp
 8049b7c:	8d 64 24 f8          	lea    -0x8(%esp),%esp
 8049b80:	dd 1c 24             	fstpl  (%esp)
 8049b83:	8d 64 24 f8          	lea    -0x8(%esp),%esp
 8049b87:	dd 1c 24             	fstpl  (%esp)
 8049b8a:	68 b2 be 04 08       	push   $0x804beb2
 8049b8f:	e8 4c ec ff ff       	call   80487e0 <printf@plt>
 8049b94:	83 c4 20             	add    $0x20,%esp
 8049b97:	a1 9c f0 04 08       	mov    0x804f09c,%eax
 8049b9c:	8b 55 0c             	mov    0xc(%ebp),%edx
 8049b9f:	c1 e2 05             	shl    $0x5,%edx
 8049ba2:	01 d0                	add    %edx,%eax
 8049ba4:	d9 40 0c             	flds   0xc(%eax)
 8049ba7:	a1 9c f0 04 08       	mov    0x804f09c,%eax
 8049bac:	8b 55 0c             	mov    0xc(%ebp),%edx
 8049baf:	c1 e2 05             	shl    $0x5,%edx
 8049bb2:	01 d0                	add    %edx,%eax
 8049bb4:	d9 40 08             	flds   0x8(%eax)
 8049bb7:	d9 c9                	fxch   %st(1)
 8049bb9:	83 ec 0c             	sub    $0xc,%esp
 8049bbc:	8d 64 24 f8          	lea    -0x8(%esp),%esp
 8049bc0:	dd 1c 24             	fstpl  (%esp)
 8049bc3:	8d 64 24 f8          	lea    -0x8(%esp),%esp
 8049bc7:	dd 1c 24             	fstpl  (%esp)
 8049bca:	68 c9 be 04 08       	push   $0x804bec9
 8049bcf:	e8 0c ec ff ff       	call   80487e0 <printf@plt>
 8049bd4:	83 c4 20             	add    $0x20,%esp
 8049bd7:	a1 9c f0 04 08       	mov    0x804f09c,%eax
 8049bdc:	8b 55 0c             	mov    0xc(%ebp),%edx
 8049bdf:	c1 e2 05             	shl    $0x5,%edx
 8049be2:	01 d0                	add    %edx,%eax
 8049be4:	d9 40 08             	flds   0x8(%eax)
 8049be7:	d9 45 e4             	flds   -0x1c(%ebp)
 8049bea:	de e9                	fsubrp %st,%st(1)
 8049bec:	d9 5d ec             	fstps  -0x14(%ebp)
 8049bef:	a1 9c f0 04 08       	mov    0x804f09c,%eax
 8049bf4:	8b 55 0c             	mov    0xc(%ebp),%edx
 8049bf7:	c1 e2 05             	shl    $0x5,%edx
 8049bfa:	01 d0                	add    %edx,%eax
 8049bfc:	d9 40 0c             	flds   0xc(%eax)
 8049bff:	d9 45 e8             	flds   -0x18(%ebp)
 8049c02:	de e9                	fsubrp %st,%st(1)
 8049c04:	d9 5d f0             	fstps  -0x10(%ebp)
 8049c07:	d9 45 f0             	flds   -0x10(%ebp)
 8049c0a:	d9 45 ec             	flds   -0x14(%ebp)
 8049c0d:	d9 c9                	fxch   %st(1)
 8049c0f:	83 ec 0c             	sub    $0xc,%esp
 8049c12:	8d 64 24 f8          	lea    -0x8(%esp),%esp
 8049c16:	dd 1c 24             	fstpl  (%esp)
 8049c19:	8d 64 24 f8          	lea    -0x8(%esp),%esp
 8049c1d:	dd 1c 24             	fstpl  (%esp)
 8049c20:	68 e0 be 04 08       	push   $0x804bee0
 8049c25:	e8 b6 eb ff ff       	call   80487e0 <printf@plt>
 8049c2a:	83 c4 20             	add    $0x20,%esp
 8049c2d:	83 ec 0c             	sub    $0xc,%esp
 8049c30:	68 f9 be 04 08       	push   $0x804bef9
 8049c35:	e8 e6 eb ff ff       	call   8048820 <puts@plt>
 8049c3a:	83 c4 10             	add    $0x10,%esp
 8049c3d:	a1 9c f0 04 08       	mov    0x804f09c,%eax
 8049c42:	8b 55 0c             	mov    0xc(%ebp),%edx
 8049c45:	c1 e2 05             	shl    $0x5,%edx
 8049c48:	01 d0                	add    %edx,%eax
 8049c4a:	8b 40 04             	mov    0x4(%eax),%eax
 8049c4d:	89 45 d0             	mov    %eax,-0x30(%ebp)
 8049c50:	a1 88 f0 04 08       	mov    0x804f088,%eax
 8049c55:	8b 55 d0             	mov    -0x30(%ebp),%edx
 8049c58:	c1 e2 02             	shl    $0x2,%edx
 8049c5b:	01 d0                	add    %edx,%eax
 8049c5d:	8b 00                	mov    (%eax),%eax
 8049c5f:	89 45 c4             	mov    %eax,-0x3c(%ebp)
 8049c62:	a1 88 f0 04 08       	mov    0x804f088,%eax
 8049c67:	8b 55 d0             	mov    -0x30(%ebp),%edx
 8049c6a:	83 c2 01             	add    $0x1,%edx
 8049c6d:	c1 e2 02             	shl    $0x2,%edx
 8049c70:	01 d0                	add    %edx,%eax
 8049c72:	8b 00                	mov    (%eax),%eax
 8049c74:	89 45 d4             	mov    %eax,-0x2c(%ebp)
 8049c77:	a1 90 f0 04 08       	mov    0x804f090,%eax
 8049c7c:	8b 55 d0             	mov    -0x30(%ebp),%edx
 8049c7f:	c1 e2 02             	shl    $0x2,%edx
 8049c82:	01 d0                	add    %edx,%eax
 8049c84:	8b 00                	mov    (%eax),%eax
 8049c86:	89 45 c8             	mov    %eax,-0x38(%ebp)
 8049c89:	a1 90 f0 04 08       	mov    0x804f090,%eax
 8049c8e:	8b 55 d0             	mov    -0x30(%ebp),%edx
 8049c91:	83 c2 01             	add    $0x1,%edx
 8049c94:	c1 e2 02             	shl    $0x2,%edx
 8049c97:	01 d0                	add    %edx,%eax
 8049c99:	8b 00                	mov    (%eax),%eax
 8049c9b:	89 45 d8             	mov    %eax,-0x28(%ebp)
 8049c9e:	c7 45 cc 00 00 00 00 	movl   $0x0,-0x34(%ebp)
 8049ca5:	8b 45 c4             	mov    -0x3c(%ebp),%eax
 8049ca8:	3b 45 d4             	cmp    -0x2c(%ebp),%eax
 8049cab:	72 08                	jb     8049cb5 <_Z19update_message_taskjjjj+0x268>
 8049cad:	8b 45 c8             	mov    -0x38(%ebp),%eax
 8049cb0:	3b 45 d8             	cmp    -0x28(%ebp),%eax
 8049cb3:	73 59                	jae    8049d0e <_Z19update_message_taskjjjj+0x2c1>
 8049cb5:	8b 45 c4             	mov    -0x3c(%ebp),%eax
 8049cb8:	3b 45 d4             	cmp    -0x2c(%ebp),%eax
 8049cbb:	73 0e                	jae    8049ccb <_Z19update_message_taskjjjj+0x27e>
 8049cbd:	8b 45 c4             	mov    -0x3c(%ebp),%eax
 8049cc0:	01 c0                	add    %eax,%eax
 8049cc2:	89 45 cc             	mov    %eax,-0x34(%ebp)
 8049cc5:	83 45 c4 01          	addl   $0x1,-0x3c(%ebp)
 8049cc9:	eb 1b                	jmp    8049ce6 <_Z19update_message_taskjjjj+0x299>
 8049ccb:	a1 98 f0 04 08       	mov    0x804f098,%eax
 8049cd0:	8b 55 c8             	mov    -0x38(%ebp),%edx
 8049cd3:	c1 e2 02             	shl    $0x2,%edx
 8049cd6:	01 d0                	add    %edx,%eax
 8049cd8:	8b 00                	mov    (%eax),%eax
 8049cda:	01 c0                	add    %eax,%eax
 8049cdc:	83 c0 01             	add    $0x1,%eax
 8049cdf:	89 45 cc             	mov    %eax,-0x34(%ebp)
 8049ce2:	83 45 c8 01          	addl   $0x1,-0x38(%ebp)
 8049ce6:	8d 45 ec             	lea    -0x14(%ebp),%eax
 8049ce9:	83 c0 04             	add    $0x4,%eax
 8049cec:	8b 10                	mov    (%eax),%edx
 8049cee:	8d 45 ec             	lea    -0x14(%ebp),%eax
 8049cf1:	8b 00                	mov    (%eax),%eax
 8049cf3:	8b 4d 08             	mov    0x8(%ebp),%ecx
 8049cf6:	83 c1 01             	add    $0x1,%ecx
 8049cf9:	83 ec 0c             	sub    $0xc,%esp
 8049cfc:	52                   	push   %edx
 8049cfd:	50                   	push   %eax
 8049cfe:	ff 75 cc             	pushl  -0x34(%ebp)
 8049d01:	51                   	push   %ecx
 8049d02:	6a 02                	push   $0x2
 8049d04:	e8 83 ed ff ff       	call   8048a8c <_Z13enq_task_arg2jjjjj>
 8049d09:	83 c4 20             	add    $0x20,%esp
 8049d0c:	eb 97                	jmp    8049ca5 <_Z19update_message_taskjjjj+0x258>
 8049d0e:	83 ec 0c             	sub    $0xc,%esp
 8049d11:	6a 0a                	push   $0xa
 8049d13:	e8 88 ea ff ff       	call   80487a0 <putchar@plt>
 8049d18:	83 c4 10             	add    $0x10,%esp
 8049d1b:	8b 45 f4             	mov    -0xc(%ebp),%eax
 8049d1e:	65 33 05 14 00 00 00 	xor    %gs:0x14,%eax
 8049d25:	74 05                	je     8049d2c <_Z19update_message_taskjjjj+0x2df>
 8049d27:	e8 d4 ea ff ff       	call   8048800 <__stack_chk_fail@plt>
 8049d2c:	c9                   	leave  
 8049d2d:	c3                   	ret    

08049d2e <_Z17reprioritize_taskjjjj>:
 8049d2e:	55                   	push   %ebp
 8049d2f:	89 e5                	mov    %esp,%ebp
 8049d31:	83 ec 38             	sub    $0x38,%esp
 8049d34:	65 a1 14 00 00 00    	mov    %gs:0x14,%eax
 8049d3a:	89 45 f4             	mov    %eax,-0xc(%ebp)
 8049d3d:	31 c0                	xor    %eax,%eax
 8049d3f:	8d 45 14             	lea    0x14(%ebp),%eax
 8049d42:	d9 00                	flds   (%eax)
 8049d44:	8d 45 10             	lea    0x10(%ebp),%eax
 8049d47:	d9 00                	flds   (%eax)
 8049d49:	d9 c9                	fxch   %st(1)
 8049d4b:	83 ec 08             	sub    $0x8,%esp
 8049d4e:	8d 64 24 f8          	lea    -0x8(%esp),%esp
 8049d52:	dd 1c 24             	fstpl  (%esp)
 8049d55:	8d 64 24 f8          	lea    -0x8(%esp),%esp
 8049d59:	dd 1c 24             	fstpl  (%esp)
 8049d5c:	ff 75 0c             	pushl  0xc(%ebp)
 8049d5f:	68 04 bf 04 08       	push   $0x804bf04
 8049d64:	e8 77 ea ff ff       	call   80487e0 <printf@plt>
 8049d69:	83 c4 20             	add    $0x20,%esp
 8049d6c:	a1 9c f0 04 08       	mov    0x804f09c,%eax
 8049d71:	8b 55 0c             	mov    0xc(%ebp),%edx
 8049d74:	c1 e2 05             	shl    $0x5,%edx
 8049d77:	01 d0                	add    %edx,%eax
 8049d79:	d9 40 10             	flds   0x10(%eax)
 8049d7c:	d9 5d ec             	fstps  -0x14(%ebp)
 8049d7f:	a1 9c f0 04 08       	mov    0x804f09c,%eax
 8049d84:	8b 55 0c             	mov    0xc(%ebp),%edx
 8049d87:	c1 e2 05             	shl    $0x5,%edx
 8049d8a:	01 c2                	add    %eax,%edx
 8049d8c:	d9 45 ec             	flds   -0x14(%ebp)
 8049d8f:	8d 45 10             	lea    0x10(%ebp),%eax
 8049d92:	d9 00                	flds   (%eax)
 8049d94:	de c1                	faddp  %st,%st(1)
 8049d96:	d9 5a 10             	fstps  0x10(%edx)
 8049d99:	8d 45 ec             	lea    -0x14(%ebp),%eax
 8049d9c:	8b 00                	mov    (%eax),%eax
 8049d9e:	8b 15 9c f0 04 08    	mov    0x804f09c,%edx
 8049da4:	8b 4d 0c             	mov    0xc(%ebp),%ecx
 8049da7:	c1 e1 05             	shl    $0x5,%ecx
 8049daa:	01 ca                	add    %ecx,%edx
 8049dac:	83 c2 10             	add    $0x10,%edx
 8049daf:	83 ec 08             	sub    $0x8,%esp
 8049db2:	50                   	push   %eax
 8049db3:	52                   	push   %edx
 8049db4:	e8 ee eb ff ff       	call   80489a7 <_Z14undo_log_writePjj>
 8049db9:	83 c4 10             	add    $0x10,%esp
 8049dbc:	a1 9c f0 04 08       	mov    0x804f09c,%eax
 8049dc1:	8b 55 0c             	mov    0xc(%ebp),%edx
 8049dc4:	c1 e2 05             	shl    $0x5,%edx
 8049dc7:	01 d0                	add    %edx,%eax
 8049dc9:	d9 40 14             	flds   0x14(%eax)
 8049dcc:	d9 5d f0             	fstps  -0x10(%ebp)
 8049dcf:	a1 9c f0 04 08       	mov    0x804f09c,%eax
 8049dd4:	8b 55 0c             	mov    0xc(%ebp),%edx
 8049dd7:	c1 e2 05             	shl    $0x5,%edx
 8049dda:	01 c2                	add    %eax,%edx
 8049ddc:	d9 45 f0             	flds   -0x10(%ebp)
 8049ddf:	8d 45 14             	lea    0x14(%ebp),%eax
 8049de2:	d9 00                	flds   (%eax)
 8049de4:	de c1                	faddp  %st,%st(1)
 8049de6:	d9 5a 14             	fstps  0x14(%edx)
 8049de9:	8d 45 ec             	lea    -0x14(%ebp),%eax
 8049dec:	83 c0 04             	add    $0x4,%eax
 8049def:	8b 00                	mov    (%eax),%eax
 8049df1:	8b 15 9c f0 04 08    	mov    0x804f09c,%edx
 8049df7:	8b 4d 0c             	mov    0xc(%ebp),%ecx
 8049dfa:	c1 e1 05             	shl    $0x5,%ecx
 8049dfd:	01 ca                	add    %ecx,%edx
 8049dff:	83 c2 14             	add    $0x14,%edx
 8049e02:	83 ec 08             	sub    $0x8,%esp
 8049e05:	50                   	push   %eax
 8049e06:	52                   	push   %edx
 8049e07:	e8 9b eb ff ff       	call   80489a7 <_Z14undo_log_writePjj>
 8049e0c:	83 c4 10             	add    $0x10,%esp
 8049e0f:	d9 45 f0             	flds   -0x10(%ebp)
 8049e12:	d9 45 ec             	flds   -0x14(%ebp)
 8049e15:	d9 c9                	fxch   %st(1)
 8049e17:	83 ec 0c             	sub    $0xc,%esp
 8049e1a:	8d 64 24 f8          	lea    -0x8(%esp),%esp
 8049e1e:	dd 1c 24             	fstpl  (%esp)
 8049e21:	8d 64 24 f8          	lea    -0x8(%esp),%esp
 8049e25:	dd 1c 24             	fstpl  (%esp)
 8049e28:	68 38 bf 04 08       	push   $0x804bf38
 8049e2d:	e8 ae e9 ff ff       	call   80487e0 <printf@plt>
 8049e32:	83 c4 20             	add    $0x20,%esp
 8049e35:	a1 9c f0 04 08       	mov    0x804f09c,%eax
 8049e3a:	8b 55 0c             	mov    0xc(%ebp),%edx
 8049e3d:	c1 e2 05             	shl    $0x5,%edx
 8049e40:	01 d0                	add    %edx,%eax
 8049e42:	d9 40 14             	flds   0x14(%eax)
 8049e45:	a1 9c f0 04 08       	mov    0x804f09c,%eax
 8049e4a:	8b 55 0c             	mov    0xc(%ebp),%edx
 8049e4d:	c1 e2 05             	shl    $0x5,%edx
 8049e50:	01 d0                	add    %edx,%eax
 8049e52:	d9 40 10             	flds   0x10(%eax)
 8049e55:	d9 c9                	fxch   %st(1)
 8049e57:	83 ec 0c             	sub    $0xc,%esp
 8049e5a:	8d 64 24 f8          	lea    -0x8(%esp),%esp
 8049e5e:	dd 1c 24             	fstpl  (%esp)
 8049e61:	8d 64 24 f8          	lea    -0x8(%esp),%esp
 8049e65:	dd 1c 24             	fstpl  (%esp)
 8049e68:	68 53 bf 04 08       	push   $0x804bf53
 8049e6d:	e8 6e e9 ff ff       	call   80487e0 <printf@plt>
 8049e72:	83 c4 20             	add    $0x20,%esp
 8049e75:	a1 9c f0 04 08       	mov    0x804f09c,%eax
 8049e7a:	8b 55 0c             	mov    0xc(%ebp),%edx
 8049e7d:	c1 e2 05             	shl    $0x5,%edx
 8049e80:	01 d0                	add    %edx,%eax
 8049e82:	8d 50 10             	lea    0x10(%eax),%edx
 8049e85:	a1 9c f0 04 08       	mov    0x804f09c,%eax
 8049e8a:	8b 4d 0c             	mov    0xc(%ebp),%ecx
 8049e8d:	c1 e1 05             	shl    $0x5,%ecx
 8049e90:	01 c8                	add    %ecx,%eax
 8049e92:	83 c0 08             	add    $0x8,%eax
 8049e95:	83 ec 08             	sub    $0x8,%esp
 8049e98:	52                   	push   %edx
 8049e99:	50                   	push   %eax
 8049e9a:	e8 85 03 00 00       	call   804a224 <_Z8distancePfS_>
 8049e9f:	83 c4 10             	add    $0x10,%esp
 8049ea2:	d9 5d d4             	fstps  -0x2c(%ebp)
 8049ea5:	8b 45 d4             	mov    -0x2c(%ebp),%eax
 8049ea8:	89 45 e4             	mov    %eax,-0x1c(%ebp)
 8049eab:	d9 45 e4             	flds   -0x1c(%ebp)
 8049eae:	83 ec 04             	sub    $0x4,%esp
 8049eb1:	8d 64 24 f8          	lea    -0x8(%esp),%esp
 8049eb5:	dd 1c 24             	fstpl  (%esp)
 8049eb8:	68 6e bf 04 08       	push   $0x804bf6e
 8049ebd:	e8 1e e9 ff ff       	call   80487e0 <printf@plt>
 8049ec2:	83 c4 10             	add    $0x10,%esp
 8049ec5:	d9 05 84 f0 04 08    	flds   0x804f084
 8049ecb:	d9 45 e4             	flds   -0x1c(%ebp)
 8049ece:	df e9                	fucomip %st(1),%st
 8049ed0:	dd d8                	fstp   %st(0)
 8049ed2:	0f 86 93 00 00 00    	jbe    8049f6b <_Z17reprioritize_taskjjjj+0x23d>
 8049ed8:	83 ec 0c             	sub    $0xc,%esp
 8049edb:	ff 75 e4             	pushl  -0x1c(%ebp)
 8049ede:	e8 cb 02 00 00       	call   804a1ae <_Z9timestampf>
 8049ee3:	83 c4 10             	add    $0x10,%esp
 8049ee6:	89 45 e8             	mov    %eax,-0x18(%ebp)
 8049ee9:	8b 45 e8             	mov    -0x18(%ebp),%eax
 8049eec:	3b 45 08             	cmp    0x8(%ebp),%eax
 8049eef:	76 3b                	jbe    8049f2c <_Z17reprioritize_taskjjjj+0x1fe>
 8049ef1:	a1 9c f0 04 08       	mov    0x804f09c,%eax
 8049ef6:	8b 55 0c             	mov    0xc(%ebp),%edx
 8049ef9:	c1 e2 05             	shl    $0x5,%edx
 8049efc:	01 d0                	add    %edx,%eax
 8049efe:	83 c0 14             	add    $0x14,%eax
 8049f01:	8b 10                	mov    (%eax),%edx
 8049f03:	a1 9c f0 04 08       	mov    0x804f09c,%eax
 8049f08:	8b 4d 0c             	mov    0xc(%ebp),%ecx
 8049f0b:	c1 e1 05             	shl    $0x5,%ecx
 8049f0e:	01 c8                	add    %ecx,%eax
 8049f10:	83 c0 10             	add    $0x10,%eax
 8049f13:	8b 00                	mov    (%eax),%eax
 8049f15:	83 ec 0c             	sub    $0xc,%esp
 8049f18:	52                   	push   %edx
 8049f19:	50                   	push   %eax
 8049f1a:	ff 75 0c             	pushl  0xc(%ebp)
 8049f1d:	ff 75 e8             	pushl  -0x18(%ebp)
 8049f20:	6a 03                	push   $0x3
 8049f22:	e8 65 eb ff ff       	call   8048a8c <_Z13enq_task_arg2jjjjj>
 8049f27:	83 c4 20             	add    $0x20,%esp
 8049f2a:	eb 4f                	jmp    8049f7b <_Z17reprioritize_taskjjjj+0x24d>
 8049f2c:	a1 9c f0 04 08       	mov    0x804f09c,%eax
 8049f31:	8b 55 0c             	mov    0xc(%ebp),%edx
 8049f34:	c1 e2 05             	shl    $0x5,%edx
 8049f37:	01 d0                	add    %edx,%eax
 8049f39:	83 c0 14             	add    $0x14,%eax
 8049f3c:	8b 10                	mov    (%eax),%edx
 8049f3e:	a1 9c f0 04 08       	mov    0x804f09c,%eax
 8049f43:	8b 4d 0c             	mov    0xc(%ebp),%ecx
 8049f46:	c1 e1 05             	shl    $0x5,%ecx
 8049f49:	01 c8                	add    %ecx,%eax
 8049f4b:	83 c0 10             	add    $0x10,%eax
 8049f4e:	8b 00                	mov    (%eax),%eax
 8049f50:	8b 4d 08             	mov    0x8(%ebp),%ecx
 8049f53:	83 c1 01             	add    $0x1,%ecx
 8049f56:	83 ec 0c             	sub    $0xc,%esp
 8049f59:	52                   	push   %edx
 8049f5a:	50                   	push   %eax
 8049f5b:	ff 75 0c             	pushl  0xc(%ebp)
 8049f5e:	51                   	push   %ecx
 8049f5f:	6a 03                	push   $0x3
 8049f61:	e8 26 eb ff ff       	call   8048a8c <_Z13enq_task_arg2jjjjj>
 8049f66:	83 c4 20             	add    $0x20,%esp
 8049f69:	eb 10                	jmp    8049f7b <_Z17reprioritize_taskjjjj+0x24d>
 8049f6b:	83 ec 0c             	sub    $0xc,%esp
 8049f6e:	68 80 bf 04 08       	push   $0x804bf80
 8049f73:	e8 a8 e8 ff ff       	call   8048820 <puts@plt>
 8049f78:	83 c4 10             	add    $0x10,%esp
 8049f7b:	83 ec 0c             	sub    $0xc,%esp
 8049f7e:	6a 0a                	push   $0xa
 8049f80:	e8 1b e8 ff ff       	call   80487a0 <putchar@plt>
 8049f85:	83 c4 10             	add    $0x10,%esp
 8049f88:	90                   	nop
 8049f89:	8b 45 f4             	mov    -0xc(%ebp),%eax
 8049f8c:	65 33 05 14 00 00 00 	xor    %gs:0x14,%eax
 8049f93:	74 05                	je     8049f9a <_Z17reprioritize_taskjjjj+0x26c>
 8049f95:	e8 66 e8 ff ff       	call   8048800 <__stack_chk_fail@plt>
 8049f9a:	c9                   	leave  
 8049f9b:	c3                   	ret    

08049f9c <main>:
 8049f9c:	8d 4c 24 04          	lea    0x4(%esp),%ecx
 8049fa0:	83 e4 f0             	and    $0xfffffff0,%esp
 8049fa3:	ff 71 fc             	pushl  -0x4(%ecx)
 8049fa6:	55                   	push   %ebp
 8049fa7:	89 e5                	mov    %esp,%ebp
 8049fa9:	53                   	push   %ebx
 8049faa:	51                   	push   %ecx
 8049fab:	83 ec 20             	sub    $0x20,%esp
 8049fae:	65 a1 14 00 00 00    	mov    %gs:0x14,%eax
 8049fb4:	89 45 f4             	mov    %eax,-0xc(%ebp)
 8049fb7:	31 c0                	xor    %eax,%eax
 8049fb9:	e8 e3 e9 ff ff       	call   80489a1 <_ZL12chronos_initv>
 8049fbe:	e8 a0 ef ff ff       	call   8048f63 <_Z22create_graph_from_filev>
 8049fc3:	83 ec 0c             	sub    $0xc,%esp
 8049fc6:	68 a2 bf 04 08       	push   $0x804bfa2
 8049fcb:	e8 50 e8 ff ff       	call   8048820 <puts@plt>
 8049fd0:	83 c4 10             	add    $0x10,%esp
 8049fd3:	e8 a1 f6 ff ff       	call   8049679 <_Z11print_graphv>
 8049fd8:	83 ec 0c             	sub    $0xc,%esp
 8049fdb:	6a 0a                	push   $0xa
 8049fdd:	e8 be e7 ff ff       	call   80487a0 <putchar@plt>
 8049fe2:	83 c4 10             	add    $0x10,%esp
 8049fe5:	83 ec 04             	sub    $0x4,%esp
 8049fe8:	6a 00                	push   $0x0
 8049fea:	6a 00                	push   $0x0
 8049fec:	6a 00                	push   $0x0
 8049fee:	e8 4e ea ff ff       	call   8048a41 <_Z13enq_task_arg0jjj>
 8049ff3:	83 c4 10             	add    $0x10,%esp
 8049ff6:	83 ec 0c             	sub    $0xc,%esp
 8049ff9:	8d 45 f0             	lea    -0x10(%ebp),%eax
 8049ffc:	50                   	push   %eax
 8049ffd:	8d 45 ec             	lea    -0x14(%ebp),%eax
 804a000:	50                   	push   %eax
 804a001:	8d 45 e8             	lea    -0x18(%ebp),%eax
 804a004:	50                   	push   %eax
 804a005:	8d 45 e4             	lea    -0x1c(%ebp),%eax
 804a008:	50                   	push   %eax
 804a009:	8d 45 e0             	lea    -0x20(%ebp),%eax
 804a00c:	50                   	push   %eax
 804a00d:	e8 d2 ec ff ff       	call   8048ce4 <_Z13deq_task_arg2PjS_S_S_S_>
 804a012:	83 c4 20             	add    $0x20,%esp
 804a015:	8b 45 e0             	mov    -0x20(%ebp),%eax
 804a018:	83 f8 02             	cmp    $0x2,%eax
 804a01b:	74 42                	je     804a05f <main+0xc3>
 804a01d:	83 f8 02             	cmp    $0x2,%eax
 804a020:	77 0b                	ja     804a02d <main+0x91>
 804a022:	85 c0                	test   %eax,%eax
 804a024:	74 13                	je     804a039 <main+0x9d>
 804a026:	83 f8 01             	cmp    $0x1,%eax
 804a029:	74 1f                	je     804a04a <main+0xae>
 804a02b:	eb 65                	jmp    804a092 <main+0xf6>
 804a02d:	83 f8 03             	cmp    $0x3,%eax
 804a030:	74 47                	je     804a079 <main+0xdd>
 804a032:	83 f8 ff             	cmp    $0xffffffff,%eax
 804a035:	74 65                	je     804a09c <main+0x100>
 804a037:	eb 59                	jmp    804a092 <main+0xf6>
 804a039:	8b 45 e4             	mov    -0x1c(%ebp),%eax
 804a03c:	83 ec 0c             	sub    $0xc,%esp
 804a03f:	50                   	push   %eax
 804a040:	e8 f5 f8 ff ff       	call   804993a <_Z9init_taskj>
 804a045:	83 c4 10             	add    $0x10,%esp
 804a048:	eb 48                	jmp    804a092 <main+0xf6>
 804a04a:	8b 55 e8             	mov    -0x18(%ebp),%edx
 804a04d:	8b 45 e4             	mov    -0x1c(%ebp),%eax
 804a050:	83 ec 08             	sub    $0x8,%esp
 804a053:	52                   	push   %edx
 804a054:	50                   	push   %eax
 804a055:	e8 3b f9 ff ff       	call   8049995 <_Z19enqueue_update_taskjj>
 804a05a:	83 c4 10             	add    $0x10,%esp
 804a05d:	eb 33                	jmp    804a092 <main+0xf6>
 804a05f:	8b 5d f0             	mov    -0x10(%ebp),%ebx
 804a062:	8b 4d ec             	mov    -0x14(%ebp),%ecx
 804a065:	8b 55 e8             	mov    -0x18(%ebp),%edx
 804a068:	8b 45 e4             	mov    -0x1c(%ebp),%eax
 804a06b:	53                   	push   %ebx
 804a06c:	51                   	push   %ecx
 804a06d:	52                   	push   %edx
 804a06e:	50                   	push   %eax
 804a06f:	e8 ba fc ff ff       	call   8049d2e <_Z17reprioritize_taskjjjj>
 804a074:	83 c4 10             	add    $0x10,%esp
 804a077:	eb 19                	jmp    804a092 <main+0xf6>
 804a079:	8b 5d f0             	mov    -0x10(%ebp),%ebx
 804a07c:	8b 4d ec             	mov    -0x14(%ebp),%ecx
 804a07f:	8b 55 e8             	mov    -0x18(%ebp),%edx
 804a082:	8b 45 e4             	mov    -0x1c(%ebp),%eax
 804a085:	53                   	push   %ebx
 804a086:	51                   	push   %ecx
 804a087:	52                   	push   %edx
 804a088:	50                   	push   %eax
 804a089:	e8 bf f9 ff ff       	call   8049a4d <_Z19update_message_taskjjjj>
 804a08e:	83 c4 10             	add    $0x10,%esp
 804a091:	90                   	nop
 804a092:	e8 04 e9 ff ff       	call   804899b <_Z11finish_taskv>
 804a097:	e9 5a ff ff ff       	jmp    8049ff6 <main+0x5a>
 804a09c:	90                   	nop
 804a09d:	83 ec 0c             	sub    $0xc,%esp
 804a0a0:	68 b0 bf 04 08       	push   $0x804bfb0
 804a0a5:	e8 76 e7 ff ff       	call   8048820 <puts@plt>
 804a0aa:	83 c4 10             	add    $0x10,%esp
 804a0ad:	e8 c7 f5 ff ff       	call   8049679 <_Z11print_graphv>
 804a0b2:	b8 00 00 00 00       	mov    $0x0,%eax
 804a0b7:	8b 4d f4             	mov    -0xc(%ebp),%ecx
 804a0ba:	65 33 0d 14 00 00 00 	xor    %gs:0x14,%ecx
 804a0c1:	74 05                	je     804a0c8 <main+0x12c>
 804a0c3:	e8 38 e7 ff ff       	call   8048800 <__stack_chk_fail@plt>
 804a0c8:	8d 65 f8             	lea    -0x8(%ebp),%esp
 804a0cb:	59                   	pop    %ecx
 804a0cc:	5b                   	pop    %ebx
 804a0cd:	5d                   	pop    %ebp
 804a0ce:	8d 61 fc             	lea    -0x4(%ecx),%esp
 804a0d1:	c3                   	ret    

0804a0d2 <_Z41__static_initialization_and_destruction_0ii>:
 804a0d2:	55                   	push   %ebp
 804a0d3:	89 e5                	mov    %esp,%ebp
 804a0d5:	53                   	push   %ebx
 804a0d6:	83 ec 24             	sub    $0x24,%esp
 804a0d9:	65 a1 14 00 00 00    	mov    %gs:0x14,%eax
 804a0df:	89 45 f4             	mov    %eax,-0xc(%ebp)
 804a0e2:	31 c0                	xor    %eax,%eax
 804a0e4:	83 7d 08 01          	cmpl   $0x1,0x8(%ebp)
 804a0e8:	75 77                	jne    804a161 <_Z41__static_initialization_and_destruction_0ii+0x8f>
 804a0ea:	81 7d 0c ff ff 00 00 	cmpl   $0xffff,0xc(%ebp)
 804a0f1:	75 6e                	jne    804a161 <_Z41__static_initialization_and_destruction_0ii+0x8f>
 804a0f3:	83 ec 0c             	sub    $0xc,%esp
 804a0f6:	8d 45 e8             	lea    -0x18(%ebp),%eax
 804a0f9:	50                   	push   %eax
 804a0fa:	e8 d7 01 00 00       	call   804a2d6 <_ZNSt6vectorI4taskSaIS0_EEC1Ev>
 804a0ff:	83 c4 10             	add    $0x10,%esp
 804a102:	83 ec 04             	sub    $0x4,%esp
 804a105:	8d 45 e8             	lea    -0x18(%ebp),%eax
 804a108:	50                   	push   %eax
 804a109:	8d 45 e7             	lea    -0x19(%ebp),%eax
 804a10c:	50                   	push   %eax
 804a10d:	68 6c f0 04 08       	push   $0x804f06c
 804a112:	e8 21 02 00 00       	call   804a338 <_ZNSt14priority_queueI4taskSt6vectorIS0_SaIS0_EE12compare_taskEC1ERKS4_OS3_>
 804a117:	83 c4 10             	add    $0x10,%esp
 804a11a:	83 ec 0c             	sub    $0xc,%esp
 804a11d:	8d 45 e8             	lea    -0x18(%ebp),%eax
 804a120:	50                   	push   %eax
 804a121:	e8 c8 01 00 00       	call   804a2ee <_ZNSt6vectorI4taskSaIS0_EED1Ev>
 804a126:	83 c4 10             	add    $0x10,%esp
 804a129:	83 ec 04             	sub    $0x4,%esp
 804a12c:	68 64 f0 04 08       	push   $0x804f064
 804a131:	68 6c f0 04 08       	push   $0x804f06c
 804a136:	68 f6 ba 04 08       	push   $0x804baf6
 804a13b:	e8 20 e6 ff ff       	call   8048760 <__cxa_atexit@plt>
 804a140:	83 c4 10             	add    $0x10,%esp
 804a143:	eb 1c                	jmp    804a161 <_Z41__static_initialization_and_destruction_0ii+0x8f>
 804a145:	89 c3                	mov    %eax,%ebx
 804a147:	83 ec 0c             	sub    $0xc,%esp
 804a14a:	8d 45 e8             	lea    -0x18(%ebp),%eax
 804a14d:	50                   	push   %eax
 804a14e:	e8 9b 01 00 00       	call   804a2ee <_ZNSt6vectorI4taskSaIS0_EED1Ev>
 804a153:	83 c4 10             	add    $0x10,%esp
 804a156:	89 d8                	mov    %ebx,%eax
 804a158:	83 ec 0c             	sub    $0xc,%esp
 804a15b:	50                   	push   %eax
 804a15c:	e8 1f e7 ff ff       	call   8048880 <_Unwind_Resume@plt>
 804a161:	8b 45 f4             	mov    -0xc(%ebp),%eax
 804a164:	65 33 05 14 00 00 00 	xor    %gs:0x14,%eax
 804a16b:	74 05                	je     804a172 <_Z41__static_initialization_and_destruction_0ii+0xa0>
 804a16d:	e8 8e e6 ff ff       	call   8048800 <__stack_chk_fail@plt>
 804a172:	8b 5d fc             	mov    -0x4(%ebp),%ebx
 804a175:	c9                   	leave  
 804a176:	c3                   	ret    

0804a177 <_GLOBAL__sub_I__Z11finish_taskv>:
 804a177:	55                   	push   %ebp
 804a178:	89 e5                	mov    %esp,%ebp
 804a17a:	83 ec 08             	sub    $0x8,%esp
 804a17d:	83 ec 08             	sub    $0x8,%esp
 804a180:	68 ff ff 00 00       	push   $0xffff
 804a185:	6a 01                	push   $0x1
 804a187:	e8 46 ff ff ff       	call   804a0d2 <_Z41__static_initialization_and_destruction_0ii>
 804a18c:	83 c4 10             	add    $0x10,%esp
 804a18f:	c9                   	leave  
 804a190:	c3                   	ret    

0804a191 <_ZnwjPv>:
 804a191:	55                   	push   %ebp
 804a192:	89 e5                	mov    %esp,%ebp
 804a194:	8b 45 0c             	mov    0xc(%ebp),%eax
 804a197:	5d                   	pop    %ebp
 804a198:	c3                   	ret    
 804a199:	90                   	nop

0804a19a <_ZNK12compare_taskclERK4taskS2_>:
 804a19a:	55                   	push   %ebp
 804a19b:	89 e5                	mov    %esp,%ebp
 804a19d:	8b 45 0c             	mov    0xc(%ebp),%eax
 804a1a0:	8b 10                	mov    (%eax),%edx
 804a1a2:	8b 45 10             	mov    0x10(%ebp),%eax
 804a1a5:	8b 00                	mov    (%eax),%eax
 804a1a7:	39 c2                	cmp    %eax,%edx
 804a1a9:	0f 97 c0             	seta   %al
 804a1ac:	5d                   	pop    %ebp
 804a1ad:	c3                   	ret    

0804a1ae <_Z9timestampf>:
 804a1ae:	55                   	push   %ebp
 804a1af:	89 e5                	mov    %esp,%ebp
 804a1b1:	83 ec 28             	sub    $0x28,%esp
 804a1b4:	c7 45 f4 00 00 00 80 	movl   $0x80000000,-0xc(%ebp)
 804a1bb:	8b 45 f4             	mov    -0xc(%ebp),%eax
 804a1be:	ba 00 00 00 00       	mov    $0x0,%edx
 804a1c3:	89 45 d8             	mov    %eax,-0x28(%ebp)
 804a1c6:	89 55 dc             	mov    %edx,-0x24(%ebp)
 804a1c9:	df 6d d8             	fildll -0x28(%ebp)
 804a1cc:	d9 5d ec             	fstps  -0x14(%ebp)
 804a1cf:	d9 45 ec             	flds   -0x14(%ebp)
 804a1d2:	d8 4d 08             	fmuls  0x8(%ebp)
 804a1d5:	d9 5d f8             	fstps  -0x8(%ebp)
 804a1d8:	d9 45 f8             	flds   -0x8(%ebp)
 804a1db:	d9 7d ea             	fnstcw -0x16(%ebp)
 804a1de:	0f b7 45 ea          	movzwl -0x16(%ebp),%eax
 804a1e2:	b4 0c                	mov    $0xc,%ah
 804a1e4:	66 89 45 e8          	mov    %ax,-0x18(%ebp)
 804a1e8:	d9 6d e8             	fldcw  -0x18(%ebp)
 804a1eb:	df 7d e0             	fistpll -0x20(%ebp)
 804a1ee:	d9 6d ea             	fldcw  -0x16(%ebp)
 804a1f1:	8b 45 e0             	mov    -0x20(%ebp),%eax
 804a1f4:	8b 55 e4             	mov    -0x1c(%ebp),%edx
 804a1f7:	ba f7 ff ff ff       	mov    $0xfffffff7,%edx
 804a1fc:	29 c2                	sub    %eax,%edx
 804a1fe:	89 d0                	mov    %edx,%eax
 804a200:	89 45 fc             	mov    %eax,-0x4(%ebp)
 804a203:	8b 45 fc             	mov    -0x4(%ebp),%eax
 804a206:	c9                   	leave  
 804a207:	c3                   	ret    

0804a208 <_Z6absvalf>:
 804a208:	55                   	push   %ebp
 804a209:	89 e5                	mov    %esp,%ebp
 804a20b:	d9 ee                	fldz   
 804a20d:	d9 45 08             	flds   0x8(%ebp)
 804a210:	d9 c9                	fxch   %st(1)
 804a212:	df e9                	fucomip %st(1),%st
 804a214:	dd d8                	fstp   %st(0)
 804a216:	76 07                	jbe    804a21f <_Z6absvalf+0x17>
 804a218:	d9 45 08             	flds   0x8(%ebp)
 804a21b:	d9 e0                	fchs   
 804a21d:	eb 03                	jmp    804a222 <_Z6absvalf+0x1a>
 804a21f:	d9 45 08             	flds   0x8(%ebp)
 804a222:	5d                   	pop    %ebp
 804a223:	c3                   	ret    

0804a224 <_Z8distancePfS_>:
 804a224:	55                   	push   %ebp
 804a225:	89 e5                	mov    %esp,%ebp
 804a227:	83 ec 28             	sub    $0x28,%esp
 804a22a:	d9 ee                	fldz   
 804a22c:	d9 5d f4             	fstps  -0xc(%ebp)
 804a22f:	8b 45 08             	mov    0x8(%ebp),%eax
 804a232:	d9 00                	flds   (%eax)
 804a234:	83 ec 0c             	sub    $0xc,%esp
 804a237:	8d 64 24 fc          	lea    -0x4(%esp),%esp
 804a23b:	d9 1c 24             	fstps  (%esp)
 804a23e:	e8 fd e4 ff ff       	call   8048740 <expf@plt>
 804a243:	83 c4 10             	add    $0x10,%esp
 804a246:	d9 5d e4             	fstps  -0x1c(%ebp)
 804a249:	8b 45 0c             	mov    0xc(%ebp),%eax
 804a24c:	d9 00                	flds   (%eax)
 804a24e:	83 ec 0c             	sub    $0xc,%esp
 804a251:	8d 64 24 fc          	lea    -0x4(%esp),%esp
 804a255:	d9 1c 24             	fstps  (%esp)
 804a258:	e8 e3 e4 ff ff       	call   8048740 <expf@plt>
 804a25d:	83 c4 10             	add    $0x10,%esp
 804a260:	d8 6d e4             	fsubrs -0x1c(%ebp)
 804a263:	83 ec 0c             	sub    $0xc,%esp
 804a266:	8d 64 24 fc          	lea    -0x4(%esp),%esp
 804a26a:	d9 1c 24             	fstps  (%esp)
 804a26d:	e8 96 ff ff ff       	call   804a208 <_Z6absvalf>
 804a272:	83 c4 10             	add    $0x10,%esp
 804a275:	d9 45 f4             	flds   -0xc(%ebp)
 804a278:	de c1                	faddp  %st,%st(1)
 804a27a:	d9 5d f4             	fstps  -0xc(%ebp)
 804a27d:	8b 45 08             	mov    0x8(%ebp),%eax
 804a280:	83 c0 04             	add    $0x4,%eax
 804a283:	d9 00                	flds   (%eax)
 804a285:	83 ec 0c             	sub    $0xc,%esp
 804a288:	8d 64 24 fc          	lea    -0x4(%esp),%esp
 804a28c:	d9 1c 24             	fstps  (%esp)
 804a28f:	e8 ac e4 ff ff       	call   8048740 <expf@plt>
 804a294:	83 c4 10             	add    $0x10,%esp
 804a297:	d9 5d e4             	fstps  -0x1c(%ebp)
 804a29a:	8b 45 0c             	mov    0xc(%ebp),%eax
 804a29d:	83 c0 04             	add    $0x4,%eax
 804a2a0:	d9 00                	flds   (%eax)
 804a2a2:	83 ec 0c             	sub    $0xc,%esp
 804a2a5:	8d 64 24 fc          	lea    -0x4(%esp),%esp
 804a2a9:	d9 1c 24             	fstps  (%esp)
 804a2ac:	e8 8f e4 ff ff       	call   8048740 <expf@plt>
 804a2b1:	83 c4 10             	add    $0x10,%esp
 804a2b4:	d8 6d e4             	fsubrs -0x1c(%ebp)
 804a2b7:	83 ec 0c             	sub    $0xc,%esp
 804a2ba:	8d 64 24 fc          	lea    -0x4(%esp),%esp
 804a2be:	d9 1c 24             	fstps  (%esp)
 804a2c1:	e8 42 ff ff ff       	call   804a208 <_Z6absvalf>
 804a2c6:	83 c4 10             	add    $0x10,%esp
 804a2c9:	d9 45 f4             	flds   -0xc(%ebp)
 804a2cc:	de c1                	faddp  %st,%st(1)
 804a2ce:	d9 5d f4             	fstps  -0xc(%ebp)
 804a2d1:	d9 45 f4             	flds   -0xc(%ebp)
 804a2d4:	c9                   	leave  
 804a2d5:	c3                   	ret    

0804a2d6 <_ZNSt6vectorI4taskSaIS0_EEC1Ev>:
 804a2d6:	55                   	push   %ebp
 804a2d7:	89 e5                	mov    %esp,%ebp
 804a2d9:	83 ec 08             	sub    $0x8,%esp
 804a2dc:	8b 45 08             	mov    0x8(%ebp),%eax
 804a2df:	83 ec 0c             	sub    $0xc,%esp
 804a2e2:	50                   	push   %eax
 804a2e3:	e8 40 02 00 00       	call   804a528 <_ZNSt12_Vector_baseI4taskSaIS0_EEC1Ev>
 804a2e8:	83 c4 10             	add    $0x10,%esp
 804a2eb:	90                   	nop
 804a2ec:	c9                   	leave  
 804a2ed:	c3                   	ret    

0804a2ee <_ZNSt6vectorI4taskSaIS0_EED1Ev>:
 804a2ee:	55                   	push   %ebp
 804a2ef:	89 e5                	mov    %esp,%ebp
 804a2f1:	83 ec 08             	sub    $0x8,%esp
 804a2f4:	8b 45 08             	mov    0x8(%ebp),%eax
 804a2f7:	83 ec 0c             	sub    $0xc,%esp
 804a2fa:	50                   	push   %eax
 804a2fb:	e8 8a 02 00 00       	call   804a58a <_ZNSt12_Vector_baseI4taskSaIS0_EE19_M_get_Tp_allocatorEv>
 804a300:	83 c4 10             	add    $0x10,%esp
 804a303:	89 c1                	mov    %eax,%ecx
 804a305:	8b 45 08             	mov    0x8(%ebp),%eax
 804a308:	8b 50 04             	mov    0x4(%eax),%edx
 804a30b:	8b 45 08             	mov    0x8(%ebp),%eax
 804a30e:	8b 00                	mov    (%eax),%eax
 804a310:	83 ec 04             	sub    $0x4,%esp
 804a313:	51                   	push   %ecx
 804a314:	52                   	push   %edx
 804a315:	50                   	push   %eax
 804a316:	e8 77 02 00 00       	call   804a592 <_ZSt8_DestroyIP4taskS0_EvT_S2_RSaIT0_E>
 804a31b:	83 c4 10             	add    $0x10,%esp
 804a31e:	8b 45 08             	mov    0x8(%ebp),%eax
 804a321:	83 ec 0c             	sub    $0xc,%esp
 804a324:	50                   	push   %eax
 804a325:	e8 16 02 00 00       	call   804a540 <_ZNSt12_Vector_baseI4taskSaIS0_EED1Ev>
 804a32a:	83 c4 10             	add    $0x10,%esp
 804a32d:	90                   	nop
 804a32e:	c9                   	leave  
 804a32f:	c3                   	ret    

0804a330 <_ZSt4moveIRSt6vectorI4taskSaIS1_EEEONSt16remove_referenceIT_E4typeEOS6_>:
 804a330:	55                   	push   %ebp
 804a331:	89 e5                	mov    %esp,%ebp
 804a333:	8b 45 08             	mov    0x8(%ebp),%eax
 804a336:	5d                   	pop    %ebp
 804a337:	c3                   	ret    

0804a338 <_ZNSt14priority_queueI4taskSt6vectorIS0_SaIS0_EE12compare_taskEC1ERKS4_OS3_>:
 804a338:	55                   	push   %ebp
 804a339:	89 e5                	mov    %esp,%ebp
 804a33b:	53                   	push   %ebx
 804a33c:	83 ec 24             	sub    $0x24,%esp
 804a33f:	8b 45 08             	mov    0x8(%ebp),%eax
 804a342:	89 45 e4             	mov    %eax,-0x1c(%ebp)
 804a345:	8b 45 0c             	mov    0xc(%ebp),%eax
 804a348:	89 45 e0             	mov    %eax,-0x20(%ebp)
 804a34b:	8b 45 10             	mov    0x10(%ebp),%eax
 804a34e:	89 45 dc             	mov    %eax,-0x24(%ebp)
 804a351:	65 a1 14 00 00 00    	mov    %gs:0x14,%eax
 804a357:	89 45 f4             	mov    %eax,-0xc(%ebp)
 804a35a:	31 c0                	xor    %eax,%eax
 804a35c:	83 ec 0c             	sub    $0xc,%esp
 804a35f:	ff 75 dc             	pushl  -0x24(%ebp)
 804a362:	e8 c9 ff ff ff       	call   804a330 <_ZSt4moveIRSt6vectorI4taskSaIS1_EEEONSt16remove_referenceIT_E4typeEOS6_>
 804a367:	83 c4 10             	add    $0x10,%esp
 804a36a:	89 c2                	mov    %eax,%edx
 804a36c:	8b 45 e4             	mov    -0x1c(%ebp),%eax
 804a36f:	83 ec 08             	sub    $0x8,%esp
 804a372:	52                   	push   %edx
 804a373:	50                   	push   %eax
 804a374:	e8 33 02 00 00       	call   804a5ac <_ZNSt6vectorI4taskSaIS0_EEC1EOS2_>
 804a379:	83 c4 10             	add    $0x10,%esp
 804a37c:	8b 55 e4             	mov    -0x1c(%ebp),%edx
 804a37f:	8d 45 ec             	lea    -0x14(%ebp),%eax
 804a382:	83 ec 08             	sub    $0x8,%esp
 804a385:	52                   	push   %edx
 804a386:	50                   	push   %eax
 804a387:	e8 6a 02 00 00       	call   804a5f6 <_ZNSt6vectorI4taskSaIS0_EE3endEv>
 804a38c:	83 c4 0c             	add    $0xc,%esp
 804a38f:	8b 55 e4             	mov    -0x1c(%ebp),%edx
 804a392:	8d 45 f0             	lea    -0x10(%ebp),%eax
 804a395:	83 ec 08             	sub    $0x8,%esp
 804a398:	52                   	push   %edx
 804a399:	50                   	push   %eax
 804a39a:	e8 37 02 00 00       	call   804a5d6 <_ZNSt6vectorI4taskSaIS0_EE5beginEv>
 804a39f:	83 c4 0c             	add    $0xc,%esp
 804a3a2:	83 ec 04             	sub    $0x4,%esp
 804a3a5:	53                   	push   %ebx
 804a3a6:	ff 75 ec             	pushl  -0x14(%ebp)
 804a3a9:	ff 75 f0             	pushl  -0x10(%ebp)
 804a3ac:	e8 67 02 00 00       	call   804a618 <_ZSt9make_heapIN9__gnu_cxx17__normal_iteratorIP4taskSt6vectorIS2_SaIS2_EEEE12compare_taskEvT_S9_T0_>
 804a3b1:	83 c4 10             	add    $0x10,%esp
 804a3b4:	90                   	nop
 804a3b5:	8b 45 f4             	mov    -0xc(%ebp),%eax
 804a3b8:	65 33 05 14 00 00 00 	xor    %gs:0x14,%eax
 804a3bf:	74 23                	je     804a3e4 <_ZNSt14priority_queueI4taskSt6vectorIS0_SaIS0_EE12compare_taskEC1ERKS4_OS3_+0xac>
 804a3c1:	eb 1c                	jmp    804a3df <_ZNSt14priority_queueI4taskSt6vectorIS0_SaIS0_EE12compare_taskEC1ERKS4_OS3_+0xa7>
 804a3c3:	89 c3                	mov    %eax,%ebx
 804a3c5:	8b 45 e4             	mov    -0x1c(%ebp),%eax
 804a3c8:	83 ec 0c             	sub    $0xc,%esp
 804a3cb:	50                   	push   %eax
 804a3cc:	e8 1d ff ff ff       	call   804a2ee <_ZNSt6vectorI4taskSaIS0_EED1Ev>
 804a3d1:	83 c4 10             	add    $0x10,%esp
 804a3d4:	89 d8                	mov    %ebx,%eax
 804a3d6:	83 ec 0c             	sub    $0xc,%esp
 804a3d9:	50                   	push   %eax
 804a3da:	e8 a1 e4 ff ff       	call   8048880 <_Unwind_Resume@plt>
 804a3df:	e8 1c e4 ff ff       	call   8048800 <__stack_chk_fail@plt>
 804a3e4:	8b 5d fc             	mov    -0x4(%ebp),%ebx
 804a3e7:	c9                   	leave  
 804a3e8:	c3                   	ret    
 804a3e9:	90                   	nop

0804a3ea <_ZNSt14priority_queueI4taskSt6vectorIS0_SaIS0_EE12compare_taskE4pushERKS0_>:
 804a3ea:	55                   	push   %ebp
 804a3eb:	89 e5                	mov    %esp,%ebp
 804a3ed:	53                   	push   %ebx
 804a3ee:	83 ec 24             	sub    $0x24,%esp
 804a3f1:	8b 45 08             	mov    0x8(%ebp),%eax
 804a3f4:	89 45 e4             	mov    %eax,-0x1c(%ebp)
 804a3f7:	8b 45 0c             	mov    0xc(%ebp),%eax
 804a3fa:	89 45 e0             	mov    %eax,-0x20(%ebp)
 804a3fd:	65 a1 14 00 00 00    	mov    %gs:0x14,%eax
 804a403:	89 45 f4             	mov    %eax,-0xc(%ebp)
 804a406:	31 c0                	xor    %eax,%eax
 804a408:	8b 45 e4             	mov    -0x1c(%ebp),%eax
 804a40b:	83 ec 08             	sub    $0x8,%esp
 804a40e:	ff 75 e0             	pushl  -0x20(%ebp)
 804a411:	50                   	push   %eax
 804a412:	e8 4d 02 00 00       	call   804a664 <_ZNSt6vectorI4taskSaIS0_EE9push_backERKS0_>
 804a417:	83 c4 10             	add    $0x10,%esp
 804a41a:	8b 55 e4             	mov    -0x1c(%ebp),%edx
 804a41d:	8d 45 ec             	lea    -0x14(%ebp),%eax
 804a420:	83 ec 08             	sub    $0x8,%esp
 804a423:	52                   	push   %edx
 804a424:	50                   	push   %eax
 804a425:	e8 cc 01 00 00       	call   804a5f6 <_ZNSt6vectorI4taskSaIS0_EE3endEv>
 804a42a:	83 c4 0c             	add    $0xc,%esp
 804a42d:	8b 55 e4             	mov    -0x1c(%ebp),%edx
 804a430:	8d 45 f0             	lea    -0x10(%ebp),%eax
 804a433:	83 ec 08             	sub    $0x8,%esp
 804a436:	52                   	push   %edx
 804a437:	50                   	push   %eax
 804a438:	e8 99 01 00 00       	call   804a5d6 <_ZNSt6vectorI4taskSaIS0_EE5beginEv>
 804a43d:	83 c4 0c             	add    $0xc,%esp
 804a440:	83 ec 04             	sub    $0x4,%esp
 804a443:	53                   	push   %ebx
 804a444:	ff 75 ec             	pushl  -0x14(%ebp)
 804a447:	ff 75 f0             	pushl  -0x10(%ebp)
 804a44a:	e8 71 02 00 00       	call   804a6c0 <_ZSt9push_heapIN9__gnu_cxx17__normal_iteratorIP4taskSt6vectorIS2_SaIS2_EEEE12compare_taskEvT_S9_T0_>
 804a44f:	83 c4 10             	add    $0x10,%esp
 804a452:	90                   	nop
 804a453:	8b 45 f4             	mov    -0xc(%ebp),%eax
 804a456:	65 33 05 14 00 00 00 	xor    %gs:0x14,%eax
 804a45d:	74 05                	je     804a464 <_ZNSt14priority_queueI4taskSt6vectorIS0_SaIS0_EE12compare_taskE4pushERKS0_+0x7a>
 804a45f:	e8 9c e3 ff ff       	call   8048800 <__stack_chk_fail@plt>
 804a464:	8b 5d fc             	mov    -0x4(%ebp),%ebx
 804a467:	c9                   	leave  
 804a468:	c3                   	ret    
 804a469:	90                   	nop

0804a46a <_ZNKSt14priority_queueI4taskSt6vectorIS0_SaIS0_EE12compare_taskE3topEv>:
 804a46a:	55                   	push   %ebp
 804a46b:	89 e5                	mov    %esp,%ebp
 804a46d:	83 ec 08             	sub    $0x8,%esp
 804a470:	8b 45 08             	mov    0x8(%ebp),%eax
 804a473:	83 ec 0c             	sub    $0xc,%esp
 804a476:	50                   	push   %eax
 804a477:	e8 26 03 00 00       	call   804a7a2 <_ZNKSt6vectorI4taskSaIS0_EE5frontEv>
 804a47c:	83 c4 10             	add    $0x10,%esp
 804a47f:	c9                   	leave  
 804a480:	c3                   	ret    
 804a481:	90                   	nop

0804a482 <_ZNSt14priority_queueI4taskSt6vectorIS0_SaIS0_EE12compare_taskE3popEv>:
 804a482:	55                   	push   %ebp
 804a483:	89 e5                	mov    %esp,%ebp
 804a485:	53                   	push   %ebx
 804a486:	83 ec 24             	sub    $0x24,%esp
 804a489:	8b 45 08             	mov    0x8(%ebp),%eax
 804a48c:	89 45 e4             	mov    %eax,-0x1c(%ebp)
 804a48f:	65 a1 14 00 00 00    	mov    %gs:0x14,%eax
 804a495:	89 45 f4             	mov    %eax,-0xc(%ebp)
 804a498:	31 c0                	xor    %eax,%eax
 804a49a:	8b 55 e4             	mov    -0x1c(%ebp),%edx
 804a49d:	8d 45 ec             	lea    -0x14(%ebp),%eax
 804a4a0:	83 ec 08             	sub    $0x8,%esp
 804a4a3:	52                   	push   %edx
 804a4a4:	50                   	push   %eax
 804a4a5:	e8 4c 01 00 00       	call   804a5f6 <_ZNSt6vectorI4taskSaIS0_EE3endEv>
 804a4aa:	83 c4 0c             	add    $0xc,%esp
 804a4ad:	8b 55 e4             	mov    -0x1c(%ebp),%edx
 804a4b0:	8d 45 f0             	lea    -0x10(%ebp),%eax
 804a4b3:	83 ec 08             	sub    $0x8,%esp
 804a4b6:	52                   	push   %edx
 804a4b7:	50                   	push   %eax
 804a4b8:	e8 19 01 00 00       	call   804a5d6 <_ZNSt6vectorI4taskSaIS0_EE5beginEv>
 804a4bd:	83 c4 0c             	add    $0xc,%esp
 804a4c0:	83 ec 04             	sub    $0x4,%esp
 804a4c3:	53                   	push   %ebx
 804a4c4:	ff 75 ec             	pushl  -0x14(%ebp)
 804a4c7:	ff 75 f0             	pushl  -0x10(%ebp)
 804a4ca:	e8 1e 03 00 00       	call   804a7ed <_ZSt8pop_heapIN9__gnu_cxx17__normal_iteratorIP4taskSt6vectorIS2_SaIS2_EEEE12compare_taskEvT_S9_T0_>
 804a4cf:	83 c4 10             	add    $0x10,%esp
 804a4d2:	8b 45 e4             	mov    -0x1c(%ebp),%eax
 804a4d5:	83 ec 0c             	sub    $0xc,%esp
 804a4d8:	50                   	push   %eax
 804a4d9:	e8 8a 03 00 00       	call   804a868 <_ZNSt6vectorI4taskSaIS0_EE8pop_backEv>
 804a4de:	83 c4 10             	add    $0x10,%esp
 804a4e1:	90                   	nop
 804a4e2:	8b 45 f4             	mov    -0xc(%ebp),%eax
 804a4e5:	65 33 05 14 00 00 00 	xor    %gs:0x14,%eax
 804a4ec:	74 05                	je     804a4f3 <_ZNSt14priority_queueI4taskSt6vectorIS0_SaIS0_EE12compare_taskE3popEv+0x71>
 804a4ee:	e8 0d e3 ff ff       	call   8048800 <__stack_chk_fail@plt>
 804a4f3:	8b 5d fc             	mov    -0x4(%ebp),%ebx
 804a4f6:	c9                   	leave  
 804a4f7:	c3                   	ret    

0804a4f8 <_ZNKSt14priority_queueI4taskSt6vectorIS0_SaIS0_EE12compare_taskE5emptyEv>:
 804a4f8:	55                   	push   %ebp
 804a4f9:	89 e5                	mov    %esp,%ebp
 804a4fb:	83 ec 08             	sub    $0x8,%esp
 804a4fe:	8b 45 08             	mov    0x8(%ebp),%eax
 804a501:	83 ec 0c             	sub    $0xc,%esp
 804a504:	50                   	push   %eax
 804a505:	e8 8c 03 00 00       	call   804a896 <_ZNKSt6vectorI4taskSaIS0_EE5emptyEv>
 804a50a:	83 c4 10             	add    $0x10,%esp
 804a50d:	c9                   	leave  
 804a50e:	c3                   	ret    
 804a50f:	90                   	nop

0804a510 <_ZNSt12_Vector_baseI4taskSaIS0_EE12_Vector_implD1Ev>:
 804a510:	55                   	push   %ebp
 804a511:	89 e5                	mov    %esp,%ebp
 804a513:	83 ec 08             	sub    $0x8,%esp
 804a516:	83 ec 0c             	sub    $0xc,%esp
 804a519:	ff 75 08             	pushl  0x8(%ebp)
 804a51c:	e8 0b 04 00 00       	call   804a92c <_ZNSaI4taskED1Ev>
 804a521:	83 c4 10             	add    $0x10,%esp
 804a524:	90                   	nop
 804a525:	c9                   	leave  
 804a526:	c3                   	ret    
 804a527:	90                   	nop

0804a528 <_ZNSt12_Vector_baseI4taskSaIS0_EEC1Ev>:
 804a528:	55                   	push   %ebp
 804a529:	89 e5                	mov    %esp,%ebp
 804a52b:	83 ec 08             	sub    $0x8,%esp
 804a52e:	8b 45 08             	mov    0x8(%ebp),%eax
 804a531:	83 ec 0c             	sub    $0xc,%esp
 804a534:	50                   	push   %eax
 804a535:	e8 be 03 00 00       	call   804a8f8 <_ZNSt12_Vector_baseI4taskSaIS0_EE12_Vector_implC1Ev>
 804a53a:	83 c4 10             	add    $0x10,%esp
 804a53d:	90                   	nop
 804a53e:	c9                   	leave  
 804a53f:	c3                   	ret    

0804a540 <_ZNSt12_Vector_baseI4taskSaIS0_EED1Ev>:
 804a540:	55                   	push   %ebp
 804a541:	89 e5                	mov    %esp,%ebp
 804a543:	83 ec 08             	sub    $0x8,%esp
 804a546:	8b 45 08             	mov    0x8(%ebp),%eax
 804a549:	8b 40 08             	mov    0x8(%eax),%eax
 804a54c:	89 c2                	mov    %eax,%edx
 804a54e:	8b 45 08             	mov    0x8(%ebp),%eax
 804a551:	8b 00                	mov    (%eax),%eax
 804a553:	29 c2                	sub    %eax,%edx
 804a555:	89 d0                	mov    %edx,%eax
 804a557:	c1 f8 02             	sar    $0x2,%eax
 804a55a:	69 c0 b7 6d db b6    	imul   $0xb6db6db7,%eax,%eax
 804a560:	89 c2                	mov    %eax,%edx
 804a562:	8b 45 08             	mov    0x8(%ebp),%eax
 804a565:	8b 00                	mov    (%eax),%eax
 804a567:	83 ec 04             	sub    $0x4,%esp
 804a56a:	52                   	push   %edx
 804a56b:	50                   	push   %eax
 804a56c:	ff 75 08             	pushl  0x8(%ebp)
 804a56f:	e8 d0 03 00 00       	call   804a944 <_ZNSt12_Vector_baseI4taskSaIS0_EE13_M_deallocateEPS0_j>
 804a574:	83 c4 10             	add    $0x10,%esp
 804a577:	8b 45 08             	mov    0x8(%ebp),%eax
 804a57a:	83 ec 0c             	sub    $0xc,%esp
 804a57d:	50                   	push   %eax
 804a57e:	e8 8d ff ff ff       	call   804a510 <_ZNSt12_Vector_baseI4taskSaIS0_EE12_Vector_implD1Ev>
 804a583:	83 c4 10             	add    $0x10,%esp
 804a586:	90                   	nop
 804a587:	c9                   	leave  
 804a588:	c3                   	ret    
 804a589:	90                   	nop

0804a58a <_ZNSt12_Vector_baseI4taskSaIS0_EE19_M_get_Tp_allocatorEv>:
 804a58a:	55                   	push   %ebp
 804a58b:	89 e5                	mov    %esp,%ebp
 804a58d:	8b 45 08             	mov    0x8(%ebp),%eax
 804a590:	5d                   	pop    %ebp
 804a591:	c3                   	ret    

0804a592 <_ZSt8_DestroyIP4taskS0_EvT_S2_RSaIT0_E>:
 804a592:	55                   	push   %ebp
 804a593:	89 e5                	mov    %esp,%ebp
 804a595:	83 ec 08             	sub    $0x8,%esp
 804a598:	83 ec 08             	sub    $0x8,%esp
 804a59b:	ff 75 0c             	pushl  0xc(%ebp)
 804a59e:	ff 75 08             	pushl  0x8(%ebp)
 804a5a1:	e8 c2 03 00 00       	call   804a968 <_ZSt8_DestroyIP4taskEvT_S2_>
 804a5a6:	83 c4 10             	add    $0x10,%esp
 804a5a9:	90                   	nop
 804a5aa:	c9                   	leave  
 804a5ab:	c3                   	ret    

0804a5ac <_ZNSt6vectorI4taskSaIS0_EEC1EOS2_>:
 804a5ac:	55                   	push   %ebp
 804a5ad:	89 e5                	mov    %esp,%ebp
 804a5af:	83 ec 08             	sub    $0x8,%esp
 804a5b2:	83 ec 0c             	sub    $0xc,%esp
 804a5b5:	ff 75 0c             	pushl  0xc(%ebp)
 804a5b8:	e8 73 fd ff ff       	call   804a330 <_ZSt4moveIRSt6vectorI4taskSaIS1_EEEONSt16remove_referenceIT_E4typeEOS6_>
 804a5bd:	83 c4 10             	add    $0x10,%esp
 804a5c0:	89 c2                	mov    %eax,%edx
 804a5c2:	8b 45 08             	mov    0x8(%ebp),%eax
 804a5c5:	83 ec 08             	sub    $0x8,%esp
 804a5c8:	52                   	push   %edx
 804a5c9:	50                   	push   %eax
 804a5ca:	e8 bb 03 00 00       	call   804a98a <_ZNSt12_Vector_baseI4taskSaIS0_EEC1EOS2_>
 804a5cf:	83 c4 10             	add    $0x10,%esp
 804a5d2:	90                   	nop
 804a5d3:	c9                   	leave  
 804a5d4:	c3                   	ret    
 804a5d5:	90                   	nop

0804a5d6 <_ZNSt6vectorI4taskSaIS0_EE5beginEv>:
 804a5d6:	55                   	push   %ebp
 804a5d7:	89 e5                	mov    %esp,%ebp
 804a5d9:	83 ec 08             	sub    $0x8,%esp
 804a5dc:	8b 45 0c             	mov    0xc(%ebp),%eax
 804a5df:	83 ec 08             	sub    $0x8,%esp
 804a5e2:	50                   	push   %eax
 804a5e3:	ff 75 08             	pushl  0x8(%ebp)
 804a5e6:	e8 e7 03 00 00       	call   804a9d2 <_ZN9__gnu_cxx17__normal_iteratorIP4taskSt6vectorIS1_SaIS1_EEEC1ERKS2_>
 804a5eb:	83 c4 10             	add    $0x10,%esp
 804a5ee:	8b 45 08             	mov    0x8(%ebp),%eax
 804a5f1:	c9                   	leave  
 804a5f2:	c2 04 00             	ret    $0x4
 804a5f5:	90                   	nop

0804a5f6 <_ZNSt6vectorI4taskSaIS0_EE3endEv>:
 804a5f6:	55                   	push   %ebp
 804a5f7:	89 e5                	mov    %esp,%ebp
 804a5f9:	83 ec 08             	sub    $0x8,%esp
 804a5fc:	8b 45 0c             	mov    0xc(%ebp),%eax
 804a5ff:	83 c0 04             	add    $0x4,%eax
 804a602:	83 ec 08             	sub    $0x8,%esp
 804a605:	50                   	push   %eax
 804a606:	ff 75 08             	pushl  0x8(%ebp)
 804a609:	e8 c4 03 00 00       	call   804a9d2 <_ZN9__gnu_cxx17__normal_iteratorIP4taskSt6vectorIS1_SaIS1_EEEC1ERKS2_>
 804a60e:	83 c4 10             	add    $0x10,%esp
 804a611:	8b 45 08             	mov    0x8(%ebp),%eax
 804a614:	c9                   	leave  
 804a615:	c2 04 00             	ret    $0x4

0804a618 <_ZSt9make_heapIN9__gnu_cxx17__normal_iteratorIP4taskSt6vectorIS2_SaIS2_EEEE12compare_taskEvT_S9_T0_>:
 804a618:	55                   	push   %ebp
 804a619:	89 e5                	mov    %esp,%ebp
 804a61b:	53                   	push   %ebx
 804a61c:	83 ec 24             	sub    $0x24,%esp
 804a61f:	65 a1 14 00 00 00    	mov    %gs:0x14,%eax
 804a625:	89 45 f4             	mov    %eax,-0xc(%ebp)
 804a628:	31 c0                	xor    %eax,%eax
 804a62a:	8d 45 e7             	lea    -0x19(%ebp),%eax
 804a62d:	83 ec 08             	sub    $0x8,%esp
 804a630:	52                   	push   %edx
 804a631:	50                   	push   %eax
 804a632:	e8 ab 03 00 00       	call   804a9e2 <_ZN9__gnu_cxx5__ops16__iter_comp_iterI12compare_taskEENS0_15_Iter_comp_iterIT_EES4_>
 804a637:	83 c4 0c             	add    $0xc,%esp
 804a63a:	83 ec 04             	sub    $0x4,%esp
 804a63d:	53                   	push   %ebx
 804a63e:	ff 75 0c             	pushl  0xc(%ebp)
 804a641:	ff 75 08             	pushl  0x8(%ebp)
 804a644:	e8 b5 03 00 00       	call   804a9fe <_ZSt11__make_heapIN9__gnu_cxx17__normal_iteratorIP4taskSt6vectorIS2_SaIS2_EEEENS0_5__ops15_Iter_comp_iterI12compare_taskEEEvT_SC_T0_>
 804a649:	83 c4 10             	add    $0x10,%esp
 804a64c:	90                   	nop
 804a64d:	8b 45 f4             	mov    -0xc(%ebp),%eax
 804a650:	65 33 05 14 00 00 00 	xor    %gs:0x14,%eax
 804a657:	74 05                	je     804a65e <_ZSt9make_heapIN9__gnu_cxx17__normal_iteratorIP4taskSt6vectorIS2_SaIS2_EEEE12compare_taskEvT_S9_T0_+0x46>
 804a659:	e8 a2 e1 ff ff       	call   8048800 <__stack_chk_fail@plt>
 804a65e:	8b 5d fc             	mov    -0x4(%ebp),%ebx
 804a661:	c9                   	leave  
 804a662:	c3                   	ret    
 804a663:	90                   	nop

0804a664 <_ZNSt6vectorI4taskSaIS0_EE9push_backERKS0_>:
 804a664:	55                   	push   %ebp
 804a665:	89 e5                	mov    %esp,%ebp
 804a667:	83 ec 08             	sub    $0x8,%esp
 804a66a:	8b 45 08             	mov    0x8(%ebp),%eax
 804a66d:	8b 50 04             	mov    0x4(%eax),%edx
 804a670:	8b 45 08             	mov    0x8(%ebp),%eax
 804a673:	8b 40 08             	mov    0x8(%eax),%eax
 804a676:	39 c2                	cmp    %eax,%edx
 804a678:	74 2a                	je     804a6a4 <_ZNSt6vectorI4taskSaIS0_EE9push_backERKS0_+0x40>
 804a67a:	8b 45 08             	mov    0x8(%ebp),%eax
 804a67d:	8b 50 04             	mov    0x4(%eax),%edx
 804a680:	8b 45 08             	mov    0x8(%ebp),%eax
 804a683:	83 ec 04             	sub    $0x4,%esp
 804a686:	ff 75 0c             	pushl  0xc(%ebp)
 804a689:	52                   	push   %edx
 804a68a:	50                   	push   %eax
 804a68b:	e8 8c 04 00 00       	call   804ab1c <_ZNSt16allocator_traitsISaI4taskEE9constructIS0_IRKS0_EEEvRS1_PT_DpOT0_>
 804a690:	83 c4 10             	add    $0x10,%esp
 804a693:	8b 45 08             	mov    0x8(%ebp),%eax
 804a696:	8b 40 04             	mov    0x4(%eax),%eax
 804a699:	8d 50 1c             	lea    0x1c(%eax),%edx
 804a69c:	8b 45 08             	mov    0x8(%ebp),%eax
 804a69f:	89 50 04             	mov    %edx,0x4(%eax)
 804a6a2:	eb 11                	jmp    804a6b5 <_ZNSt6vectorI4taskSaIS0_EE9push_backERKS0_+0x51>
 804a6a4:	83 ec 08             	sub    $0x8,%esp
 804a6a7:	ff 75 0c             	pushl  0xc(%ebp)
 804a6aa:	ff 75 08             	pushl  0x8(%ebp)
 804a6ad:	e8 94 04 00 00       	call   804ab46 <_ZNSt6vectorI4taskSaIS0_EE19_M_emplace_back_auxIIRKS0_EEEvDpOT_>
 804a6b2:	83 c4 10             	add    $0x10,%esp
 804a6b5:	90                   	nop
 804a6b6:	c9                   	leave  
 804a6b7:	c3                   	ret    

0804a6b8 <_ZSt4moveIR4taskEONSt16remove_referenceIT_E4typeEOS3_>:
 804a6b8:	55                   	push   %ebp
 804a6b9:	89 e5                	mov    %esp,%ebp
 804a6bb:	8b 45 08             	mov    0x8(%ebp),%eax
 804a6be:	5d                   	pop    %ebp
 804a6bf:	c3                   	ret    

0804a6c0 <_ZSt9push_heapIN9__gnu_cxx17__normal_iteratorIP4taskSt6vectorIS2_SaIS2_EEEE12compare_taskEvT_S9_T0_>:
 804a6c0:	55                   	push   %ebp
 804a6c1:	89 e5                	mov    %esp,%ebp
 804a6c3:	56                   	push   %esi
 804a6c4:	53                   	push   %ebx
 804a6c5:	83 ec 40             	sub    $0x40,%esp
 804a6c8:	65 a1 14 00 00 00    	mov    %gs:0x14,%eax
 804a6ce:	89 45 f4             	mov    %eax,-0xc(%ebp)
 804a6d1:	31 c0                	xor    %eax,%eax
 804a6d3:	8d 45 d4             	lea    -0x2c(%ebp),%eax
 804a6d6:	83 ec 04             	sub    $0x4,%esp
 804a6d9:	6a 01                	push   $0x1
 804a6db:	8d 55 0c             	lea    0xc(%ebp),%edx
 804a6de:	52                   	push   %edx
 804a6df:	50                   	push   %eax
 804a6e0:	e8 35 06 00 00       	call   804ad1a <_ZNK9__gnu_cxx17__normal_iteratorIP4taskSt6vectorIS1_SaIS1_EEEmiEi>
 804a6e5:	83 c4 0c             	add    $0xc,%esp
 804a6e8:	83 ec 0c             	sub    $0xc,%esp
 804a6eb:	8d 45 d4             	lea    -0x2c(%ebp),%eax
 804a6ee:	50                   	push   %eax
 804a6ef:	e8 8a 06 00 00       	call   804ad7e <_ZNK9__gnu_cxx17__normal_iteratorIP4taskSt6vectorIS1_SaIS1_EEEdeEv>
 804a6f4:	83 c4 10             	add    $0x10,%esp
 804a6f7:	83 ec 0c             	sub    $0xc,%esp
 804a6fa:	50                   	push   %eax
 804a6fb:	e8 b8 ff ff ff       	call   804a6b8 <_ZSt4moveIR4taskEONSt16remove_referenceIT_E4typeEOS3_>
 804a700:	83 c4 10             	add    $0x10,%esp
 804a703:	8b 10                	mov    (%eax),%edx
 804a705:	89 55 d8             	mov    %edx,-0x28(%ebp)
 804a708:	8b 50 04             	mov    0x4(%eax),%edx
 804a70b:	89 55 dc             	mov    %edx,-0x24(%ebp)
 804a70e:	8b 50 08             	mov    0x8(%eax),%edx
 804a711:	89 55 e0             	mov    %edx,-0x20(%ebp)
 804a714:	8b 50 0c             	mov    0xc(%eax),%edx
 804a717:	89 55 e4             	mov    %edx,-0x1c(%ebp)
 804a71a:	8b 50 10             	mov    0x10(%eax),%edx
 804a71d:	89 55 e8             	mov    %edx,-0x18(%ebp)
 804a720:	8b 50 14             	mov    0x14(%eax),%edx
 804a723:	89 55 ec             	mov    %edx,-0x14(%ebp)
 804a726:	8b 40 18             	mov    0x18(%eax),%eax
 804a729:	89 45 f0             	mov    %eax,-0x10(%ebp)
 804a72c:	8d 45 c7             	lea    -0x39(%ebp),%eax
 804a72f:	83 ec 08             	sub    $0x8,%esp
 804a732:	53                   	push   %ebx
 804a733:	50                   	push   %eax
 804a734:	e8 8a 06 00 00       	call   804adc3 <_ZN9__gnu_cxx5__ops15__iter_comp_valI12compare_taskEENS0_14_Iter_comp_valIT_EES4_>
 804a739:	83 c4 0c             	add    $0xc,%esp
 804a73c:	83 ec 0c             	sub    $0xc,%esp
 804a73f:	8d 45 d8             	lea    -0x28(%ebp),%eax
 804a742:	50                   	push   %eax
 804a743:	e8 70 ff ff ff       	call   804a6b8 <_ZSt4moveIR4taskEONSt16remove_referenceIT_E4typeEOS3_>
 804a748:	83 c4 10             	add    $0x10,%esp
 804a74b:	89 c3                	mov    %eax,%ebx
 804a74d:	83 ec 08             	sub    $0x8,%esp
 804a750:	8d 45 08             	lea    0x8(%ebp),%eax
 804a753:	50                   	push   %eax
 804a754:	8d 45 0c             	lea    0xc(%ebp),%eax
 804a757:	50                   	push   %eax
 804a758:	e8 2b 06 00 00       	call   804ad88 <_ZN9__gnu_cxxmiIP4taskSt6vectorIS1_SaIS1_EEEENS_17__normal_iteratorIT_T0_E15difference_typeERKS9_SC_>
 804a75d:	83 c4 10             	add    $0x10,%esp
 804a760:	83 e8 01             	sub    $0x1,%eax
 804a763:	83 ec 04             	sub    $0x4,%esp
 804a766:	56                   	push   %esi
 804a767:	ff 73 18             	pushl  0x18(%ebx)
 804a76a:	ff 73 14             	pushl  0x14(%ebx)
 804a76d:	ff 73 10             	pushl  0x10(%ebx)
 804a770:	ff 73 0c             	pushl  0xc(%ebx)
 804a773:	ff 73 08             	pushl  0x8(%ebx)
 804a776:	ff 73 04             	pushl  0x4(%ebx)
 804a779:	ff 33                	pushl  (%ebx)
 804a77b:	6a 00                	push   $0x0
 804a77d:	50                   	push   %eax
 804a77e:	ff 75 08             	pushl  0x8(%ebp)
 804a781:	e8 59 06 00 00       	call   804addf <_ZSt11__push_heapIN9__gnu_cxx17__normal_iteratorIP4taskSt6vectorIS2_SaIS2_EEEEiS2_NS0_5__ops14_Iter_comp_valI12compare_taskEEEvT_T0_SD_T1_T2_>
 804a786:	83 c4 30             	add    $0x30,%esp
 804a789:	90                   	nop
 804a78a:	8b 45 f4             	mov    -0xc(%ebp),%eax
 804a78d:	65 33 05 14 00 00 00 	xor    %gs:0x14,%eax
 804a794:	74 05                	je     804a79b <_ZSt9push_heapIN9__gnu_cxx17__normal_iteratorIP4taskSt6vectorIS2_SaIS2_EEEE12compare_taskEvT_S9_T0_+0xdb>
 804a796:	e8 65 e0 ff ff       	call   8048800 <__stack_chk_fail@plt>
 804a79b:	8d 65 f8             	lea    -0x8(%ebp),%esp
 804a79e:	5b                   	pop    %ebx
 804a79f:	5e                   	pop    %esi
 804a7a0:	5d                   	pop    %ebp
 804a7a1:	c3                   	ret    

0804a7a2 <_ZNKSt6vectorI4taskSaIS0_EE5frontEv>:
 804a7a2:	55                   	push   %ebp
 804a7a3:	89 e5                	mov    %esp,%ebp
 804a7a5:	83 ec 28             	sub    $0x28,%esp
 804a7a8:	8b 45 08             	mov    0x8(%ebp),%eax
 804a7ab:	89 45 e4             	mov    %eax,-0x1c(%ebp)
 804a7ae:	65 a1 14 00 00 00    	mov    %gs:0x14,%eax
 804a7b4:	89 45 f4             	mov    %eax,-0xc(%ebp)
 804a7b7:	31 c0                	xor    %eax,%eax
 804a7b9:	8d 45 f0             	lea    -0x10(%ebp),%eax
 804a7bc:	83 ec 08             	sub    $0x8,%esp
 804a7bf:	ff 75 e4             	pushl  -0x1c(%ebp)
 804a7c2:	50                   	push   %eax
 804a7c3:	e8 9a 07 00 00       	call   804af62 <_ZNKSt6vectorI4taskSaIS0_EE5beginEv>
 804a7c8:	83 c4 0c             	add    $0xc,%esp
 804a7cb:	83 ec 0c             	sub    $0xc,%esp
 804a7ce:	8d 45 f0             	lea    -0x10(%ebp),%eax
 804a7d1:	50                   	push   %eax
 804a7d2:	e8 db 07 00 00       	call   804afb2 <_ZNK9__gnu_cxx17__normal_iteratorIPK4taskSt6vectorIS1_SaIS1_EEEdeEv>
 804a7d7:	83 c4 10             	add    $0x10,%esp
 804a7da:	8b 55 f4             	mov    -0xc(%ebp),%edx
 804a7dd:	65 33 15 14 00 00 00 	xor    %gs:0x14,%edx
 804a7e4:	74 05                	je     804a7eb <_ZNKSt6vectorI4taskSaIS0_EE5frontEv+0x49>
 804a7e6:	e8 15 e0 ff ff       	call   8048800 <__stack_chk_fail@plt>
 804a7eb:	c9                   	leave  
 804a7ec:	c3                   	ret    

0804a7ed <_ZSt8pop_heapIN9__gnu_cxx17__normal_iteratorIP4taskSt6vectorIS2_SaIS2_EEEE12compare_taskEvT_S9_T0_>:
 804a7ed:	55                   	push   %ebp
 804a7ee:	89 e5                	mov    %esp,%ebp
 804a7f0:	56                   	push   %esi
 804a7f1:	53                   	push   %ebx
 804a7f2:	83 ec 20             	sub    $0x20,%esp
 804a7f5:	65 a1 14 00 00 00    	mov    %gs:0x14,%eax
 804a7fb:	89 45 f4             	mov    %eax,-0xc(%ebp)
 804a7fe:	31 c0                	xor    %eax,%eax
 804a800:	83 ec 08             	sub    $0x8,%esp
 804a803:	8d 45 08             	lea    0x8(%ebp),%eax
 804a806:	50                   	push   %eax
 804a807:	8d 45 0c             	lea    0xc(%ebp),%eax
 804a80a:	50                   	push   %eax
 804a80b:	e8 78 05 00 00       	call   804ad88 <_ZN9__gnu_cxxmiIP4taskSt6vectorIS1_SaIS1_EEEENS_17__normal_iteratorIT_T0_E15difference_typeERKS9_SC_>
 804a810:	83 c4 10             	add    $0x10,%esp
 804a813:	83 f8 01             	cmp    $0x1,%eax
 804a816:	0f 9f c0             	setg   %al
 804a819:	84 c0                	test   %al,%al
 804a81b:	74 31                	je     804a84e <_ZSt8pop_heapIN9__gnu_cxx17__normal_iteratorIP4taskSt6vectorIS2_SaIS2_EEEE12compare_taskEvT_S9_T0_+0x61>
 804a81d:	83 ec 0c             	sub    $0xc,%esp
 804a820:	8d 45 0c             	lea    0xc(%ebp),%eax
 804a823:	50                   	push   %eax
 804a824:	e8 93 07 00 00       	call   804afbc <_ZN9__gnu_cxx17__normal_iteratorIP4taskSt6vectorIS1_SaIS1_EEEmmEv>
 804a829:	83 c4 10             	add    $0x10,%esp
 804a82c:	8d 45 e7             	lea    -0x19(%ebp),%eax
 804a82f:	83 ec 08             	sub    $0x8,%esp
 804a832:	56                   	push   %esi
 804a833:	50                   	push   %eax
 804a834:	e8 a9 01 00 00       	call   804a9e2 <_ZN9__gnu_cxx5__ops16__iter_comp_iterI12compare_taskEENS0_15_Iter_comp_iterIT_EES4_>
 804a839:	83 c4 0c             	add    $0xc,%esp
 804a83c:	53                   	push   %ebx
 804a83d:	ff 75 0c             	pushl  0xc(%ebp)
 804a840:	ff 75 0c             	pushl  0xc(%ebp)
 804a843:	ff 75 08             	pushl  0x8(%ebp)
 804a846:	e8 86 07 00 00       	call   804afd1 <_ZSt10__pop_heapIN9__gnu_cxx17__normal_iteratorIP4taskSt6vectorIS2_SaIS2_EEEENS0_5__ops15_Iter_comp_iterI12compare_taskEEEvT_SC_SC_T0_>
 804a84b:	83 c4 10             	add    $0x10,%esp
 804a84e:	90                   	nop
 804a84f:	8b 45 f4             	mov    -0xc(%ebp),%eax
 804a852:	65 33 05 14 00 00 00 	xor    %gs:0x14,%eax
 804a859:	74 05                	je     804a860 <_ZSt8pop_heapIN9__gnu_cxx17__normal_iteratorIP4taskSt6vectorIS2_SaIS2_EEEE12compare_taskEvT_S9_T0_+0x73>
 804a85b:	e8 a0 df ff ff       	call   8048800 <__stack_chk_fail@plt>
 804a860:	8d 65 f8             	lea    -0x8(%ebp),%esp
 804a863:	5b                   	pop    %ebx
 804a864:	5e                   	pop    %esi
 804a865:	5d                   	pop    %ebp
 804a866:	c3                   	ret    
 804a867:	90                   	nop

0804a868 <_ZNSt6vectorI4taskSaIS0_EE8pop_backEv>:
 804a868:	55                   	push   %ebp
 804a869:	89 e5                	mov    %esp,%ebp
 804a86b:	83 ec 08             	sub    $0x8,%esp
 804a86e:	8b 45 08             	mov    0x8(%ebp),%eax
 804a871:	8b 40 04             	mov    0x4(%eax),%eax
 804a874:	8d 50 e4             	lea    -0x1c(%eax),%edx
 804a877:	8b 45 08             	mov    0x8(%ebp),%eax
 804a87a:	89 50 04             	mov    %edx,0x4(%eax)
 804a87d:	8b 45 08             	mov    0x8(%ebp),%eax
 804a880:	8b 50 04             	mov    0x4(%eax),%edx
 804a883:	8b 45 08             	mov    0x8(%ebp),%eax
 804a886:	83 ec 08             	sub    $0x8,%esp
 804a889:	52                   	push   %edx
 804a88a:	50                   	push   %eax
 804a88b:	e8 52 08 00 00       	call   804b0e2 <_ZNSt16allocator_traitsISaI4taskEE7destroyIS0_EEvRS1_PT_>
 804a890:	83 c4 10             	add    $0x10,%esp
 804a893:	90                   	nop
 804a894:	c9                   	leave  
 804a895:	c3                   	ret    

0804a896 <_ZNKSt6vectorI4taskSaIS0_EE5emptyEv>:
 804a896:	55                   	push   %ebp
 804a897:	89 e5                	mov    %esp,%ebp
 804a899:	83 ec 28             	sub    $0x28,%esp
 804a89c:	8b 45 08             	mov    0x8(%ebp),%eax
 804a89f:	89 45 e4             	mov    %eax,-0x1c(%ebp)
 804a8a2:	65 a1 14 00 00 00    	mov    %gs:0x14,%eax
 804a8a8:	89 45 f4             	mov    %eax,-0xc(%ebp)
 804a8ab:	31 c0                	xor    %eax,%eax
 804a8ad:	8d 45 f0             	lea    -0x10(%ebp),%eax
 804a8b0:	83 ec 08             	sub    $0x8,%esp
 804a8b3:	ff 75 e4             	pushl  -0x1c(%ebp)
 804a8b6:	50                   	push   %eax
 804a8b7:	e8 40 08 00 00       	call   804b0fc <_ZNKSt6vectorI4taskSaIS0_EE3endEv>
 804a8bc:	83 c4 0c             	add    $0xc,%esp
 804a8bf:	8d 45 ec             	lea    -0x14(%ebp),%eax
 804a8c2:	83 ec 08             	sub    $0x8,%esp
 804a8c5:	ff 75 e4             	pushl  -0x1c(%ebp)
 804a8c8:	50                   	push   %eax
 804a8c9:	e8 94 06 00 00       	call   804af62 <_ZNKSt6vectorI4taskSaIS0_EE5beginEv>
 804a8ce:	83 c4 0c             	add    $0xc,%esp
 804a8d1:	83 ec 08             	sub    $0x8,%esp
 804a8d4:	8d 45 f0             	lea    -0x10(%ebp),%eax
 804a8d7:	50                   	push   %eax
 804a8d8:	8d 45 ec             	lea    -0x14(%ebp),%eax
 804a8db:	50                   	push   %eax
 804a8dc:	e8 6b 08 00 00       	call   804b14c <_ZN9__gnu_cxxeqIPK4taskSt6vectorIS1_SaIS1_EEEEbRKNS_17__normal_iteratorIT_T0_EESC_>
 804a8e1:	83 c4 10             	add    $0x10,%esp
 804a8e4:	8b 55 f4             	mov    -0xc(%ebp),%edx
 804a8e7:	65 33 15 14 00 00 00 	xor    %gs:0x14,%edx
 804a8ee:	74 05                	je     804a8f5 <_ZNKSt6vectorI4taskSaIS0_EE5emptyEv+0x5f>
 804a8f0:	e8 0b df ff ff       	call   8048800 <__stack_chk_fail@plt>
 804a8f5:	c9                   	leave  
 804a8f6:	c3                   	ret    
 804a8f7:	90                   	nop

0804a8f8 <_ZNSt12_Vector_baseI4taskSaIS0_EE12_Vector_implC1Ev>:
 804a8f8:	55                   	push   %ebp
 804a8f9:	89 e5                	mov    %esp,%ebp
 804a8fb:	83 ec 08             	sub    $0x8,%esp
 804a8fe:	83 ec 0c             	sub    $0xc,%esp
 804a901:	ff 75 08             	pushl  0x8(%ebp)
 804a904:	e8 75 08 00 00       	call   804b17e <_ZNSaI4taskEC1Ev>
 804a909:	83 c4 10             	add    $0x10,%esp
 804a90c:	8b 45 08             	mov    0x8(%ebp),%eax
 804a90f:	c7 00 00 00 00 00    	movl   $0x0,(%eax)
 804a915:	8b 45 08             	mov    0x8(%ebp),%eax
 804a918:	c7 40 04 00 00 00 00 	movl   $0x0,0x4(%eax)
 804a91f:	8b 45 08             	mov    0x8(%ebp),%eax
 804a922:	c7 40 08 00 00 00 00 	movl   $0x0,0x8(%eax)
 804a929:	90                   	nop
 804a92a:	c9                   	leave  
 804a92b:	c3                   	ret    

0804a92c <_ZNSaI4taskED1Ev>:
 804a92c:	55                   	push   %ebp
 804a92d:	89 e5                	mov    %esp,%ebp
 804a92f:	83 ec 08             	sub    $0x8,%esp
 804a932:	83 ec 0c             	sub    $0xc,%esp
 804a935:	ff 75 08             	pushl  0x8(%ebp)
 804a938:	e8 59 08 00 00       	call   804b196 <_ZN9__gnu_cxx13new_allocatorI4taskED1Ev>
 804a93d:	83 c4 10             	add    $0x10,%esp
 804a940:	90                   	nop
 804a941:	c9                   	leave  
 804a942:	c3                   	ret    
 804a943:	90                   	nop

0804a944 <_ZNSt12_Vector_baseI4taskSaIS0_EE13_M_deallocateEPS0_j>:
 804a944:	55                   	push   %ebp
 804a945:	89 e5                	mov    %esp,%ebp
 804a947:	83 ec 08             	sub    $0x8,%esp
 804a94a:	83 7d 0c 00          	cmpl   $0x0,0xc(%ebp)
 804a94e:	74 15                	je     804a965 <_ZNSt12_Vector_baseI4taskSaIS0_EE13_M_deallocateEPS0_j+0x21>
 804a950:	8b 45 08             	mov    0x8(%ebp),%eax
 804a953:	83 ec 04             	sub    $0x4,%esp
 804a956:	ff 75 10             	pushl  0x10(%ebp)
 804a959:	ff 75 0c             	pushl  0xc(%ebp)
 804a95c:	50                   	push   %eax
 804a95d:	e8 3a 08 00 00       	call   804b19c <_ZNSt16allocator_traitsISaI4taskEE10deallocateERS1_PS0_j>
 804a962:	83 c4 10             	add    $0x10,%esp
 804a965:	90                   	nop
 804a966:	c9                   	leave  
 804a967:	c3                   	ret    

0804a968 <_ZSt8_DestroyIP4taskEvT_S2_>:
 804a968:	55                   	push   %ebp
 804a969:	89 e5                	mov    %esp,%ebp
 804a96b:	83 ec 08             	sub    $0x8,%esp
 804a96e:	83 ec 08             	sub    $0x8,%esp
 804a971:	ff 75 0c             	pushl  0xc(%ebp)
 804a974:	ff 75 08             	pushl  0x8(%ebp)
 804a977:	e8 3d 08 00 00       	call   804b1b9 <_ZNSt12_Destroy_auxILb1EE9__destroyIP4taskEEvT_S4_>
 804a97c:	83 c4 10             	add    $0x10,%esp
 804a97f:	90                   	nop
 804a980:	c9                   	leave  
 804a981:	c3                   	ret    

0804a982 <_ZSt4moveIRSaI4taskEEONSt16remove_referenceIT_E4typeEOS4_>:
 804a982:	55                   	push   %ebp
 804a983:	89 e5                	mov    %esp,%ebp
 804a985:	8b 45 08             	mov    0x8(%ebp),%eax
 804a988:	5d                   	pop    %ebp
 804a989:	c3                   	ret    

0804a98a <_ZNSt12_Vector_baseI4taskSaIS0_EEC1EOS2_>:
 804a98a:	55                   	push   %ebp
 804a98b:	89 e5                	mov    %esp,%ebp
 804a98d:	83 ec 08             	sub    $0x8,%esp
 804a990:	83 ec 0c             	sub    $0xc,%esp
 804a993:	ff 75 0c             	pushl  0xc(%ebp)
 804a996:	e8 ef fb ff ff       	call   804a58a <_ZNSt12_Vector_baseI4taskSaIS0_EE19_M_get_Tp_allocatorEv>
 804a99b:	83 c4 10             	add    $0x10,%esp
 804a99e:	83 ec 0c             	sub    $0xc,%esp
 804a9a1:	50                   	push   %eax
 804a9a2:	e8 db ff ff ff       	call   804a982 <_ZSt4moveIRSaI4taskEEONSt16remove_referenceIT_E4typeEOS4_>
 804a9a7:	83 c4 10             	add    $0x10,%esp
 804a9aa:	89 c2                	mov    %eax,%edx
 804a9ac:	8b 45 08             	mov    0x8(%ebp),%eax
 804a9af:	83 ec 08             	sub    $0x8,%esp
 804a9b2:	52                   	push   %edx
 804a9b3:	50                   	push   %eax
 804a9b4:	e8 07 08 00 00       	call   804b1c0 <_ZNSt12_Vector_baseI4taskSaIS0_EE12_Vector_implC1EOS1_>
 804a9b9:	83 c4 10             	add    $0x10,%esp
 804a9bc:	8b 55 0c             	mov    0xc(%ebp),%edx
 804a9bf:	8b 45 08             	mov    0x8(%ebp),%eax
 804a9c2:	83 ec 08             	sub    $0x8,%esp
 804a9c5:	52                   	push   %edx
 804a9c6:	50                   	push   %eax
 804a9c7:	e8 38 08 00 00       	call   804b204 <_ZNSt12_Vector_baseI4taskSaIS0_EE12_Vector_impl12_M_swap_dataERS3_>
 804a9cc:	83 c4 10             	add    $0x10,%esp
 804a9cf:	90                   	nop
 804a9d0:	c9                   	leave  
 804a9d1:	c3                   	ret    

0804a9d2 <_ZN9__gnu_cxx17__normal_iteratorIP4taskSt6vectorIS1_SaIS1_EEEC1ERKS2_>:
 804a9d2:	55                   	push   %ebp
 804a9d3:	89 e5                	mov    %esp,%ebp
 804a9d5:	8b 45 0c             	mov    0xc(%ebp),%eax
 804a9d8:	8b 10                	mov    (%eax),%edx
 804a9da:	8b 45 08             	mov    0x8(%ebp),%eax
 804a9dd:	89 10                	mov    %edx,(%eax)
 804a9df:	90                   	nop
 804a9e0:	5d                   	pop    %ebp
 804a9e1:	c3                   	ret    

0804a9e2 <_ZN9__gnu_cxx5__ops16__iter_comp_iterI12compare_taskEENS0_15_Iter_comp_iterIT_EES4_>:
 804a9e2:	55                   	push   %ebp
 804a9e3:	89 e5                	mov    %esp,%ebp
 804a9e5:	83 ec 08             	sub    $0x8,%esp
 804a9e8:	83 ec 08             	sub    $0x8,%esp
 804a9eb:	50                   	push   %eax
 804a9ec:	ff 75 08             	pushl  0x8(%ebp)
 804a9ef:	e8 5e 08 00 00       	call   804b252 <_ZN9__gnu_cxx5__ops15_Iter_comp_iterI12compare_taskEC1ES2_>
 804a9f4:	83 c4 10             	add    $0x10,%esp
 804a9f7:	8b 45 08             	mov    0x8(%ebp),%eax
 804a9fa:	c9                   	leave  
 804a9fb:	c2 04 00             	ret    $0x4

0804a9fe <_ZSt11__make_heapIN9__gnu_cxx17__normal_iteratorIP4taskSt6vectorIS2_SaIS2_EEEENS0_5__ops15_Iter_comp_iterI12compare_taskEEEvT_SC_T0_>:
 804a9fe:	55                   	push   %ebp
 804a9ff:	89 e5                	mov    %esp,%ebp
 804aa01:	83 ec 38             	sub    $0x38,%esp
 804aa04:	65 a1 14 00 00 00    	mov    %gs:0x14,%eax
 804aa0a:	89 45 f4             	mov    %eax,-0xc(%ebp)
 804aa0d:	31 c0                	xor    %eax,%eax
 804aa0f:	83 ec 08             	sub    $0x8,%esp
 804aa12:	8d 45 08             	lea    0x8(%ebp),%eax
 804aa15:	50                   	push   %eax
 804aa16:	8d 45 0c             	lea    0xc(%ebp),%eax
 804aa19:	50                   	push   %eax
 804aa1a:	e8 69 03 00 00       	call   804ad88 <_ZN9__gnu_cxxmiIP4taskSt6vectorIS1_SaIS1_EEEENS_17__normal_iteratorIT_T0_E15difference_typeERKS9_SC_>
 804aa1f:	83 c4 10             	add    $0x10,%esp
 804aa22:	83 f8 01             	cmp    $0x1,%eax
 804aa25:	0f 9e c0             	setle  %al
 804aa28:	84 c0                	test   %al,%al
 804aa2a:	0f 85 cd 00 00 00    	jne    804aafd <_ZSt11__make_heapIN9__gnu_cxx17__normal_iteratorIP4taskSt6vectorIS2_SaIS2_EEEENS0_5__ops15_Iter_comp_iterI12compare_taskEEEvT_SC_T0_+0xff>
 804aa30:	83 ec 08             	sub    $0x8,%esp
 804aa33:	8d 45 08             	lea    0x8(%ebp),%eax
 804aa36:	50                   	push   %eax
 804aa37:	8d 45 0c             	lea    0xc(%ebp),%eax
 804aa3a:	50                   	push   %eax
 804aa3b:	e8 48 03 00 00       	call   804ad88 <_ZN9__gnu_cxxmiIP4taskSt6vectorIS1_SaIS1_EEEENS_17__normal_iteratorIT_T0_E15difference_typeERKS9_SC_>
 804aa40:	83 c4 10             	add    $0x10,%esp
 804aa43:	89 45 d4             	mov    %eax,-0x2c(%ebp)
 804aa46:	8b 45 d4             	mov    -0x2c(%ebp),%eax
 804aa49:	83 e8 02             	sub    $0x2,%eax
 804aa4c:	89 c2                	mov    %eax,%edx
 804aa4e:	c1 ea 1f             	shr    $0x1f,%edx
 804aa51:	01 d0                	add    %edx,%eax
 804aa53:	d1 f8                	sar    %eax
 804aa55:	89 45 d0             	mov    %eax,-0x30(%ebp)
 804aa58:	8d 45 cc             	lea    -0x34(%ebp),%eax
 804aa5b:	83 ec 04             	sub    $0x4,%esp
 804aa5e:	ff 75 d0             	pushl  -0x30(%ebp)
 804aa61:	8d 55 08             	lea    0x8(%ebp),%edx
 804aa64:	52                   	push   %edx
 804aa65:	50                   	push   %eax
 804aa66:	e8 ed 07 00 00       	call   804b258 <_ZNK9__gnu_cxx17__normal_iteratorIP4taskSt6vectorIS1_SaIS1_EEEplEi>
 804aa6b:	83 c4 0c             	add    $0xc,%esp
 804aa6e:	83 ec 0c             	sub    $0xc,%esp
 804aa71:	8d 45 cc             	lea    -0x34(%ebp),%eax
 804aa74:	50                   	push   %eax
 804aa75:	e8 04 03 00 00       	call   804ad7e <_ZNK9__gnu_cxx17__normal_iteratorIP4taskSt6vectorIS1_SaIS1_EEEdeEv>
 804aa7a:	83 c4 10             	add    $0x10,%esp
 804aa7d:	83 ec 0c             	sub    $0xc,%esp
 804aa80:	50                   	push   %eax
 804aa81:	e8 32 fc ff ff       	call   804a6b8 <_ZSt4moveIR4taskEONSt16remove_referenceIT_E4typeEOS3_>
 804aa86:	83 c4 10             	add    $0x10,%esp
 804aa89:	8b 10                	mov    (%eax),%edx
 804aa8b:	89 55 d8             	mov    %edx,-0x28(%ebp)
 804aa8e:	8b 50 04             	mov    0x4(%eax),%edx
 804aa91:	89 55 dc             	mov    %edx,-0x24(%ebp)
 804aa94:	8b 50 08             	mov    0x8(%eax),%edx
 804aa97:	89 55 e0             	mov    %edx,-0x20(%ebp)
 804aa9a:	8b 50 0c             	mov    0xc(%eax),%edx
 804aa9d:	89 55 e4             	mov    %edx,-0x1c(%ebp)
 804aaa0:	8b 50 10             	mov    0x10(%eax),%edx
 804aaa3:	89 55 e8             	mov    %edx,-0x18(%ebp)
 804aaa6:	8b 50 14             	mov    0x14(%eax),%edx
 804aaa9:	89 55 ec             	mov    %edx,-0x14(%ebp)
 804aaac:	8b 40 18             	mov    0x18(%eax),%eax
 804aaaf:	89 45 f0             	mov    %eax,-0x10(%ebp)
 804aab2:	83 ec 0c             	sub    $0xc,%esp
 804aab5:	8d 45 d8             	lea    -0x28(%ebp),%eax
 804aab8:	50                   	push   %eax
 804aab9:	e8 fa fb ff ff       	call   804a6b8 <_ZSt4moveIR4taskEONSt16remove_referenceIT_E4typeEOS3_>
 804aabe:	83 c4 10             	add    $0x10,%esp
 804aac1:	83 ec 04             	sub    $0x4,%esp
 804aac4:	0f b6 55 10          	movzbl 0x10(%ebp),%edx
 804aac8:	52                   	push   %edx
 804aac9:	ff 70 18             	pushl  0x18(%eax)
 804aacc:	ff 70 14             	pushl  0x14(%eax)
 804aacf:	ff 70 10             	pushl  0x10(%eax)
 804aad2:	ff 70 0c             	pushl  0xc(%eax)
 804aad5:	ff 70 08             	pushl  0x8(%eax)
 804aad8:	ff 70 04             	pushl  0x4(%eax)
 804aadb:	ff 30                	pushl  (%eax)
 804aadd:	ff 75 d4             	pushl  -0x2c(%ebp)
 804aae0:	ff 75 d0             	pushl  -0x30(%ebp)
 804aae3:	ff 75 08             	pushl  0x8(%ebp)
 804aae6:	e8 cf 07 00 00       	call   804b2ba <_ZSt13__adjust_heapIN9__gnu_cxx17__normal_iteratorIP4taskSt6vectorIS2_SaIS2_EEEEiS2_NS0_5__ops15_Iter_comp_iterI12compare_taskEEEvT_T0_SD_T1_T2_>
 804aaeb:	83 c4 30             	add    $0x30,%esp
 804aaee:	83 7d d0 00          	cmpl   $0x0,-0x30(%ebp)
 804aaf2:	74 0c                	je     804ab00 <_ZSt11__make_heapIN9__gnu_cxx17__normal_iteratorIP4taskSt6vectorIS2_SaIS2_EEEENS0_5__ops15_Iter_comp_iterI12compare_taskEEEvT_SC_T0_+0x102>
 804aaf4:	83 6d d0 01          	subl   $0x1,-0x30(%ebp)
 804aaf8:	e9 5b ff ff ff       	jmp    804aa58 <_ZSt11__make_heapIN9__gnu_cxx17__normal_iteratorIP4taskSt6vectorIS2_SaIS2_EEEENS0_5__ops15_Iter_comp_iterI12compare_taskEEEvT_SC_T0_+0x5a>
 804aafd:	90                   	nop
 804aafe:	eb 01                	jmp    804ab01 <_ZSt11__make_heapIN9__gnu_cxx17__normal_iteratorIP4taskSt6vectorIS2_SaIS2_EEEENS0_5__ops15_Iter_comp_iterI12compare_taskEEEvT_SC_T0_+0x103>
 804ab00:	90                   	nop
 804ab01:	8b 45 f4             	mov    -0xc(%ebp),%eax
 804ab04:	65 33 05 14 00 00 00 	xor    %gs:0x14,%eax
 804ab0b:	74 05                	je     804ab12 <_ZSt11__make_heapIN9__gnu_cxx17__normal_iteratorIP4taskSt6vectorIS2_SaIS2_EEEENS0_5__ops15_Iter_comp_iterI12compare_taskEEEvT_SC_T0_+0x114>
 804ab0d:	e8 ee dc ff ff       	call   8048800 <__stack_chk_fail@plt>
 804ab12:	c9                   	leave  
 804ab13:	c3                   	ret    

0804ab14 <_ZSt7forwardIRK4taskEOT_RNSt16remove_referenceIS3_E4typeE>:
 804ab14:	55                   	push   %ebp
 804ab15:	89 e5                	mov    %esp,%ebp
 804ab17:	8b 45 08             	mov    0x8(%ebp),%eax
 804ab1a:	5d                   	pop    %ebp
 804ab1b:	c3                   	ret    

0804ab1c <_ZNSt16allocator_traitsISaI4taskEE9constructIS0_IRKS0_EEEvRS1_PT_DpOT0_>:
 804ab1c:	55                   	push   %ebp
 804ab1d:	89 e5                	mov    %esp,%ebp
 804ab1f:	83 ec 08             	sub    $0x8,%esp
 804ab22:	83 ec 0c             	sub    $0xc,%esp
 804ab25:	ff 75 10             	pushl  0x10(%ebp)
 804ab28:	e8 e7 ff ff ff       	call   804ab14 <_ZSt7forwardIRK4taskEOT_RNSt16remove_referenceIS3_E4typeE>
 804ab2d:	83 c4 10             	add    $0x10,%esp
 804ab30:	83 ec 04             	sub    $0x4,%esp
 804ab33:	50                   	push   %eax
 804ab34:	ff 75 0c             	pushl  0xc(%ebp)
 804ab37:	ff 75 08             	pushl  0x8(%ebp)
 804ab3a:	e8 b9 09 00 00       	call   804b4f8 <_ZN9__gnu_cxx13new_allocatorI4taskE9constructIS1_IRKS1_EEEvPT_DpOT0_>
 804ab3f:	83 c4 10             	add    $0x10,%esp
 804ab42:	90                   	nop
 804ab43:	c9                   	leave  
 804ab44:	c3                   	ret    
 804ab45:	90                   	nop

0804ab46 <_ZNSt6vectorI4taskSaIS0_EE19_M_emplace_back_auxIIRKS0_EEEvDpOT_>:
 804ab46:	55                   	push   %ebp
 804ab47:	89 e5                	mov    %esp,%ebp
 804ab49:	53                   	push   %ebx
 804ab4a:	83 ec 14             	sub    $0x14,%esp
 804ab4d:	83 ec 04             	sub    $0x4,%esp
 804ab50:	68 be bf 04 08       	push   $0x804bfbe
 804ab55:	6a 01                	push   $0x1
 804ab57:	ff 75 08             	pushl  0x8(%ebp)
 804ab5a:	e8 f3 09 00 00       	call   804b552 <_ZNKSt6vectorI4taskSaIS0_EE12_M_check_lenEjPKc>
 804ab5f:	83 c4 10             	add    $0x10,%esp
 804ab62:	89 45 f0             	mov    %eax,-0x10(%ebp)
 804ab65:	8b 45 08             	mov    0x8(%ebp),%eax
 804ab68:	83 ec 08             	sub    $0x8,%esp
 804ab6b:	ff 75 f0             	pushl  -0x10(%ebp)
 804ab6e:	50                   	push   %eax
 804ab6f:	e8 c0 0a 00 00       	call   804b634 <_ZNSt12_Vector_baseI4taskSaIS0_EE11_M_allocateEj>
 804ab74:	83 c4 10             	add    $0x10,%esp
 804ab77:	89 45 f4             	mov    %eax,-0xc(%ebp)
 804ab7a:	8b 45 f4             	mov    -0xc(%ebp),%eax
 804ab7d:	89 45 ec             	mov    %eax,-0x14(%ebp)
 804ab80:	83 ec 0c             	sub    $0xc,%esp
 804ab83:	ff 75 0c             	pushl  0xc(%ebp)
 804ab86:	e8 89 ff ff ff       	call   804ab14 <_ZSt7forwardIRK4taskEOT_RNSt16remove_referenceIS3_E4typeE>
 804ab8b:	83 c4 10             	add    $0x10,%esp
 804ab8e:	89 c3                	mov    %eax,%ebx
 804ab90:	83 ec 0c             	sub    $0xc,%esp
 804ab93:	ff 75 08             	pushl  0x8(%ebp)
 804ab96:	e8 c1 0a 00 00       	call   804b65c <_ZNKSt6vectorI4taskSaIS0_EE4sizeEv>
 804ab9b:	83 c4 10             	add    $0x10,%esp
 804ab9e:	c1 e0 02             	shl    $0x2,%eax
 804aba1:	8d 14 c5 00 00 00 00 	lea    0x0(,%eax,8),%edx
 804aba8:	29 c2                	sub    %eax,%edx
 804abaa:	8b 45 f4             	mov    -0xc(%ebp),%eax
 804abad:	01 c2                	add    %eax,%edx
 804abaf:	8b 45 08             	mov    0x8(%ebp),%eax
 804abb2:	83 ec 04             	sub    $0x4,%esp
 804abb5:	53                   	push   %ebx
 804abb6:	52                   	push   %edx
 804abb7:	50                   	push   %eax
 804abb8:	e8 5f ff ff ff       	call   804ab1c <_ZNSt16allocator_traitsISaI4taskEE9constructIS0_IRKS0_EEEvRS1_PT_DpOT0_>
 804abbd:	83 c4 10             	add    $0x10,%esp
 804abc0:	c7 45 ec 00 00 00 00 	movl   $0x0,-0x14(%ebp)
 804abc7:	8b 45 08             	mov    0x8(%ebp),%eax
 804abca:	83 ec 0c             	sub    $0xc,%esp
 804abcd:	50                   	push   %eax
 804abce:	e8 b7 f9 ff ff       	call   804a58a <_ZNSt12_Vector_baseI4taskSaIS0_EE19_M_get_Tp_allocatorEv>
 804abd3:	83 c4 10             	add    $0x10,%esp
 804abd6:	89 c1                	mov    %eax,%ecx
 804abd8:	8b 45 08             	mov    0x8(%ebp),%eax
 804abdb:	8b 50 04             	mov    0x4(%eax),%edx
 804abde:	8b 45 08             	mov    0x8(%ebp),%eax
 804abe1:	8b 00                	mov    (%eax),%eax
 804abe3:	51                   	push   %ecx
 804abe4:	ff 75 f4             	pushl  -0xc(%ebp)
 804abe7:	52                   	push   %edx
 804abe8:	50                   	push   %eax
 804abe9:	e8 8d 0a 00 00       	call   804b67b <_ZSt34__uninitialized_move_if_noexcept_aIP4taskS1_SaIS0_EET0_T_S4_S3_RT1_>
 804abee:	83 c4 10             	add    $0x10,%esp
 804abf1:	89 45 ec             	mov    %eax,-0x14(%ebp)
 804abf4:	83 45 ec 1c          	addl   $0x1c,-0x14(%ebp)
 804abf8:	8b 45 08             	mov    0x8(%ebp),%eax
 804abfb:	83 ec 0c             	sub    $0xc,%esp
 804abfe:	50                   	push   %eax
 804abff:	e8 86 f9 ff ff       	call   804a58a <_ZNSt12_Vector_baseI4taskSaIS0_EE19_M_get_Tp_allocatorEv>
 804ac04:	83 c4 10             	add    $0x10,%esp
 804ac07:	89 c1                	mov    %eax,%ecx
 804ac09:	8b 45 08             	mov    0x8(%ebp),%eax
 804ac0c:	8b 50 04             	mov    0x4(%eax),%edx
 804ac0f:	8b 45 08             	mov    0x8(%ebp),%eax
 804ac12:	8b 00                	mov    (%eax),%eax
 804ac14:	83 ec 04             	sub    $0x4,%esp
 804ac17:	51                   	push   %ecx
 804ac18:	52                   	push   %edx
 804ac19:	50                   	push   %eax
 804ac1a:	e8 73 f9 ff ff       	call   804a592 <_ZSt8_DestroyIP4taskS0_EvT_S2_RSaIT0_E>
 804ac1f:	83 c4 10             	add    $0x10,%esp
 804ac22:	8b 45 08             	mov    0x8(%ebp),%eax
 804ac25:	8b 40 08             	mov    0x8(%eax),%eax
 804ac28:	89 c2                	mov    %eax,%edx
 804ac2a:	8b 45 08             	mov    0x8(%ebp),%eax
 804ac2d:	8b 00                	mov    (%eax),%eax
 804ac2f:	29 c2                	sub    %eax,%edx
 804ac31:	89 d0                	mov    %edx,%eax
 804ac33:	c1 f8 02             	sar    $0x2,%eax
 804ac36:	69 c0 b7 6d db b6    	imul   $0xb6db6db7,%eax,%eax
 804ac3c:	89 c1                	mov    %eax,%ecx
 804ac3e:	8b 45 08             	mov    0x8(%ebp),%eax
 804ac41:	8b 10                	mov    (%eax),%edx
 804ac43:	8b 45 08             	mov    0x8(%ebp),%eax
 804ac46:	83 ec 04             	sub    $0x4,%esp
 804ac49:	51                   	push   %ecx
 804ac4a:	52                   	push   %edx
 804ac4b:	50                   	push   %eax
 804ac4c:	e8 f3 fc ff ff       	call   804a944 <_ZNSt12_Vector_baseI4taskSaIS0_EE13_M_deallocateEPS0_j>
 804ac51:	83 c4 10             	add    $0x10,%esp
 804ac54:	8b 45 08             	mov    0x8(%ebp),%eax
 804ac57:	8b 55 f4             	mov    -0xc(%ebp),%edx
 804ac5a:	89 10                	mov    %edx,(%eax)
 804ac5c:	8b 45 08             	mov    0x8(%ebp),%eax
 804ac5f:	8b 55 ec             	mov    -0x14(%ebp),%edx
 804ac62:	89 50 04             	mov    %edx,0x4(%eax)
 804ac65:	8b 45 f0             	mov    -0x10(%ebp),%eax
 804ac68:	c1 e0 02             	shl    $0x2,%eax
 804ac6b:	8d 14 c5 00 00 00 00 	lea    0x0(,%eax,8),%edx
 804ac72:	29 c2                	sub    %eax,%edx
 804ac74:	8b 45 f4             	mov    -0xc(%ebp),%eax
 804ac77:	01 c2                	add    %eax,%edx
 804ac79:	8b 45 08             	mov    0x8(%ebp),%eax
 804ac7c:	89 50 08             	mov    %edx,0x8(%eax)
 804ac7f:	e9 90 00 00 00       	jmp    804ad14 <_ZNSt6vectorI4taskSaIS0_EE19_M_emplace_back_auxIIRKS0_EEEvDpOT_+0x1ce>
 804ac84:	83 ec 0c             	sub    $0xc,%esp
 804ac87:	50                   	push   %eax
 804ac88:	e8 c3 db ff ff       	call   8048850 <__cxa_begin_catch@plt>
 804ac8d:	83 c4 10             	add    $0x10,%esp
 804ac90:	83 7d ec 00          	cmpl   $0x0,-0x14(%ebp)
 804ac94:	75 31                	jne    804acc7 <_ZNSt6vectorI4taskSaIS0_EE19_M_emplace_back_auxIIRKS0_EEEvDpOT_+0x181>
 804ac96:	83 ec 0c             	sub    $0xc,%esp
 804ac99:	ff 75 08             	pushl  0x8(%ebp)
 804ac9c:	e8 bb 09 00 00       	call   804b65c <_ZNKSt6vectorI4taskSaIS0_EE4sizeEv>
 804aca1:	83 c4 10             	add    $0x10,%esp
 804aca4:	c1 e0 02             	shl    $0x2,%eax
 804aca7:	8d 14 c5 00 00 00 00 	lea    0x0(,%eax,8),%edx
 804acae:	29 c2                	sub    %eax,%edx
 804acb0:	8b 45 f4             	mov    -0xc(%ebp),%eax
 804acb3:	01 c2                	add    %eax,%edx
 804acb5:	8b 45 08             	mov    0x8(%ebp),%eax
 804acb8:	83 ec 08             	sub    $0x8,%esp
 804acbb:	52                   	push   %edx
 804acbc:	50                   	push   %eax
 804acbd:	e8 20 04 00 00       	call   804b0e2 <_ZNSt16allocator_traitsISaI4taskEE7destroyIS0_EEvRS1_PT_>
 804acc2:	83 c4 10             	add    $0x10,%esp
 804acc5:	eb 21                	jmp    804ace8 <_ZNSt6vectorI4taskSaIS0_EE19_M_emplace_back_auxIIRKS0_EEEvDpOT_+0x1a2>
 804acc7:	8b 45 08             	mov    0x8(%ebp),%eax
 804acca:	83 ec 0c             	sub    $0xc,%esp
 804accd:	50                   	push   %eax
 804acce:	e8 b7 f8 ff ff       	call   804a58a <_ZNSt12_Vector_baseI4taskSaIS0_EE19_M_get_Tp_allocatorEv>
 804acd3:	83 c4 10             	add    $0x10,%esp
 804acd6:	83 ec 04             	sub    $0x4,%esp
 804acd9:	50                   	push   %eax
 804acda:	ff 75 ec             	pushl  -0x14(%ebp)
 804acdd:	ff 75 f4             	pushl  -0xc(%ebp)
 804ace0:	e8 ad f8 ff ff       	call   804a592 <_ZSt8_DestroyIP4taskS0_EvT_S2_RSaIT0_E>
 804ace5:	83 c4 10             	add    $0x10,%esp
 804ace8:	8b 45 08             	mov    0x8(%ebp),%eax
 804aceb:	83 ec 04             	sub    $0x4,%esp
 804acee:	ff 75 f0             	pushl  -0x10(%ebp)
 804acf1:	ff 75 f4             	pushl  -0xc(%ebp)
 804acf4:	50                   	push   %eax
 804acf5:	e8 4a fc ff ff       	call   804a944 <_ZNSt12_Vector_baseI4taskSaIS0_EE13_M_deallocateEPS0_j>
 804acfa:	83 c4 10             	add    $0x10,%esp
 804acfd:	e8 8e da ff ff       	call   8048790 <__cxa_rethrow@plt>
 804ad02:	89 c3                	mov    %eax,%ebx
 804ad04:	e8 27 db ff ff       	call   8048830 <__cxa_end_catch@plt>
 804ad09:	89 d8                	mov    %ebx,%eax
 804ad0b:	83 ec 0c             	sub    $0xc,%esp
 804ad0e:	50                   	push   %eax
 804ad0f:	e8 6c db ff ff       	call   8048880 <_Unwind_Resume@plt>
 804ad14:	8b 5d fc             	mov    -0x4(%ebp),%ebx
 804ad17:	c9                   	leave  
 804ad18:	c3                   	ret    
 804ad19:	90                   	nop

0804ad1a <_ZNK9__gnu_cxx17__normal_iteratorIP4taskSt6vectorIS1_SaIS1_EEEmiEi>:
 804ad1a:	55                   	push   %ebp
 804ad1b:	89 e5                	mov    %esp,%ebp
 804ad1d:	83 ec 28             	sub    $0x28,%esp
 804ad20:	8b 45 08             	mov    0x8(%ebp),%eax
 804ad23:	89 45 e4             	mov    %eax,-0x1c(%ebp)
 804ad26:	8b 45 0c             	mov    0xc(%ebp),%eax
 804ad29:	89 45 e0             	mov    %eax,-0x20(%ebp)
 804ad2c:	65 a1 14 00 00 00    	mov    %gs:0x14,%eax
 804ad32:	89 45 f4             	mov    %eax,-0xc(%ebp)
 804ad35:	31 c0                	xor    %eax,%eax
 804ad37:	8b 45 e0             	mov    -0x20(%ebp),%eax
 804ad3a:	8b 10                	mov    (%eax),%edx
 804ad3c:	8b 45 10             	mov    0x10(%ebp),%eax
 804ad3f:	c1 e0 02             	shl    $0x2,%eax
 804ad42:	8d 0c c5 00 00 00 00 	lea    0x0(,%eax,8),%ecx
 804ad49:	29 c1                	sub    %eax,%ecx
 804ad4b:	89 c8                	mov    %ecx,%eax
 804ad4d:	f7 d8                	neg    %eax
 804ad4f:	01 d0                	add    %edx,%eax
 804ad51:	89 45 f0             	mov    %eax,-0x10(%ebp)
 804ad54:	83 ec 08             	sub    $0x8,%esp
 804ad57:	8d 45 f0             	lea    -0x10(%ebp),%eax
 804ad5a:	50                   	push   %eax
 804ad5b:	ff 75 e4             	pushl  -0x1c(%ebp)
 804ad5e:	e8 6f fc ff ff       	call   804a9d2 <_ZN9__gnu_cxx17__normal_iteratorIP4taskSt6vectorIS1_SaIS1_EEEC1ERKS2_>
 804ad63:	83 c4 10             	add    $0x10,%esp
 804ad66:	8b 45 e4             	mov    -0x1c(%ebp),%eax
 804ad69:	8b 55 f4             	mov    -0xc(%ebp),%edx
 804ad6c:	65 33 15 14 00 00 00 	xor    %gs:0x14,%edx
 804ad73:	74 05                	je     804ad7a <_ZNK9__gnu_cxx17__normal_iteratorIP4taskSt6vectorIS1_SaIS1_EEEmiEi+0x60>
 804ad75:	e8 86 da ff ff       	call   8048800 <__stack_chk_fail@plt>
 804ad7a:	c9                   	leave  
 804ad7b:	c2 04 00             	ret    $0x4

0804ad7e <_ZNK9__gnu_cxx17__normal_iteratorIP4taskSt6vectorIS1_SaIS1_EEEdeEv>:
 804ad7e:	55                   	push   %ebp
 804ad7f:	89 e5                	mov    %esp,%ebp
 804ad81:	8b 45 08             	mov    0x8(%ebp),%eax
 804ad84:	8b 00                	mov    (%eax),%eax
 804ad86:	5d                   	pop    %ebp
 804ad87:	c3                   	ret    

0804ad88 <_ZN9__gnu_cxxmiIP4taskSt6vectorIS1_SaIS1_EEEENS_17__normal_iteratorIT_T0_E15difference_typeERKS9_SC_>:
 804ad88:	55                   	push   %ebp
 804ad89:	89 e5                	mov    %esp,%ebp
 804ad8b:	53                   	push   %ebx
 804ad8c:	83 ec 04             	sub    $0x4,%esp
 804ad8f:	83 ec 0c             	sub    $0xc,%esp
 804ad92:	ff 75 08             	pushl  0x8(%ebp)
 804ad95:	e8 56 09 00 00       	call   804b6f0 <_ZNK9__gnu_cxx17__normal_iteratorIP4taskSt6vectorIS1_SaIS1_EEE4baseEv>
 804ad9a:	83 c4 10             	add    $0x10,%esp
 804ad9d:	8b 00                	mov    (%eax),%eax
 804ad9f:	89 c3                	mov    %eax,%ebx
 804ada1:	83 ec 0c             	sub    $0xc,%esp
 804ada4:	ff 75 0c             	pushl  0xc(%ebp)
 804ada7:	e8 44 09 00 00       	call   804b6f0 <_ZNK9__gnu_cxx17__normal_iteratorIP4taskSt6vectorIS1_SaIS1_EEE4baseEv>
 804adac:	83 c4 10             	add    $0x10,%esp
 804adaf:	8b 00                	mov    (%eax),%eax
 804adb1:	29 c3                	sub    %eax,%ebx
 804adb3:	89 d8                	mov    %ebx,%eax
 804adb5:	c1 f8 02             	sar    $0x2,%eax
 804adb8:	69 c0 b7 6d db b6    	imul   $0xb6db6db7,%eax,%eax
 804adbe:	8b 5d fc             	mov    -0x4(%ebp),%ebx
 804adc1:	c9                   	leave  
 804adc2:	c3                   	ret    

0804adc3 <_ZN9__gnu_cxx5__ops15__iter_comp_valI12compare_taskEENS0_14_Iter_comp_valIT_EES4_>:
 804adc3:	55                   	push   %ebp
 804adc4:	89 e5                	mov    %esp,%ebp
 804adc6:	83 ec 08             	sub    $0x8,%esp
 804adc9:	83 ec 08             	sub    $0x8,%esp
 804adcc:	50                   	push   %eax
 804adcd:	ff 75 08             	pushl  0x8(%ebp)
 804add0:	e8 23 09 00 00       	call   804b6f8 <_ZN9__gnu_cxx5__ops14_Iter_comp_valI12compare_taskEC1ES2_>
 804add5:	83 c4 10             	add    $0x10,%esp
 804add8:	8b 45 08             	mov    0x8(%ebp),%eax
 804addb:	c9                   	leave  
 804addc:	c2 04 00             	ret    $0x4

0804addf <_ZSt11__push_heapIN9__gnu_cxx17__normal_iteratorIP4taskSt6vectorIS2_SaIS2_EEEEiS2_NS0_5__ops14_Iter_comp_valI12compare_taskEEEvT_T0_SD_T1_T2_>:
 804addf:	55                   	push   %ebp
 804ade0:	89 e5                	mov    %esp,%ebp
 804ade2:	53                   	push   %ebx
 804ade3:	83 ec 24             	sub    $0x24,%esp
 804ade6:	65 a1 14 00 00 00    	mov    %gs:0x14,%eax
 804adec:	89 45 f4             	mov    %eax,-0xc(%ebp)
 804adef:	31 c0                	xor    %eax,%eax
 804adf1:	8b 45 0c             	mov    0xc(%ebp),%eax
 804adf4:	83 e8 01             	sub    $0x1,%eax
 804adf7:	89 c2                	mov    %eax,%edx
 804adf9:	c1 ea 1f             	shr    $0x1f,%edx
 804adfc:	01 d0                	add    %edx,%eax
 804adfe:	d1 f8                	sar    %eax
 804ae00:	89 45 f0             	mov    %eax,-0x10(%ebp)
 804ae03:	8b 45 0c             	mov    0xc(%ebp),%eax
 804ae06:	3b 45 10             	cmp    0x10(%ebp),%eax
 804ae09:	7e 37                	jle    804ae42 <_ZSt11__push_heapIN9__gnu_cxx17__normal_iteratorIP4taskSt6vectorIS2_SaIS2_EEEEiS2_NS0_5__ops14_Iter_comp_valI12compare_taskEEEvT_T0_SD_T1_T2_+0x63>
 804ae0b:	8d 45 ec             	lea    -0x14(%ebp),%eax
 804ae0e:	83 ec 04             	sub    $0x4,%esp
 804ae11:	ff 75 f0             	pushl  -0x10(%ebp)
 804ae14:	8d 55 08             	lea    0x8(%ebp),%edx
 804ae17:	52                   	push   %edx
 804ae18:	50                   	push   %eax
 804ae19:	e8 3a 04 00 00       	call   804b258 <_ZNK9__gnu_cxx17__normal_iteratorIP4taskSt6vectorIS1_SaIS1_EEEplEi>
 804ae1e:	83 c4 0c             	add    $0xc,%esp
 804ae21:	83 ec 04             	sub    $0x4,%esp
 804ae24:	8d 45 14             	lea    0x14(%ebp),%eax
 804ae27:	50                   	push   %eax
 804ae28:	ff 75 ec             	pushl  -0x14(%ebp)
 804ae2b:	8d 45 30             	lea    0x30(%ebp),%eax
 804ae2e:	50                   	push   %eax
 804ae2f:	e8 ca 08 00 00       	call   804b6fe <_ZN9__gnu_cxx5__ops14_Iter_comp_valI12compare_taskEclINS_17__normal_iteratorIP4taskSt6vectorIS6_SaIS6_EEEES6_EEbT_RT0_>
 804ae34:	83 c4 10             	add    $0x10,%esp
 804ae37:	84 c0                	test   %al,%al
 804ae39:	74 07                	je     804ae42 <_ZSt11__push_heapIN9__gnu_cxx17__normal_iteratorIP4taskSt6vectorIS2_SaIS2_EEEEiS2_NS0_5__ops14_Iter_comp_valI12compare_taskEEEvT_T0_SD_T1_T2_+0x63>
 804ae3b:	b8 01 00 00 00       	mov    $0x1,%eax
 804ae40:	eb 05                	jmp    804ae47 <_ZSt11__push_heapIN9__gnu_cxx17__normal_iteratorIP4taskSt6vectorIS2_SaIS2_EEEEiS2_NS0_5__ops14_Iter_comp_valI12compare_taskEEEvT_T0_SD_T1_T2_+0x68>
 804ae42:	b8 00 00 00 00       	mov    $0x0,%eax
 804ae47:	84 c0                	test   %al,%al
 804ae49:	0f 84 9d 00 00 00    	je     804aeec <_ZSt11__push_heapIN9__gnu_cxx17__normal_iteratorIP4taskSt6vectorIS2_SaIS2_EEEEiS2_NS0_5__ops14_Iter_comp_valI12compare_taskEEEvT_T0_SD_T1_T2_+0x10d>
 804ae4f:	8d 45 e4             	lea    -0x1c(%ebp),%eax
 804ae52:	83 ec 04             	sub    $0x4,%esp
 804ae55:	ff 75 0c             	pushl  0xc(%ebp)
 804ae58:	8d 55 08             	lea    0x8(%ebp),%edx
 804ae5b:	52                   	push   %edx
 804ae5c:	50                   	push   %eax
 804ae5d:	e8 f6 03 00 00       	call   804b258 <_ZNK9__gnu_cxx17__normal_iteratorIP4taskSt6vectorIS1_SaIS1_EEEplEi>
 804ae62:	83 c4 0c             	add    $0xc,%esp
 804ae65:	83 ec 0c             	sub    $0xc,%esp
 804ae68:	8d 45 e4             	lea    -0x1c(%ebp),%eax
 804ae6b:	50                   	push   %eax
 804ae6c:	e8 0d ff ff ff       	call   804ad7e <_ZNK9__gnu_cxx17__normal_iteratorIP4taskSt6vectorIS1_SaIS1_EEEdeEv>
 804ae71:	83 c4 10             	add    $0x10,%esp
 804ae74:	89 c3                	mov    %eax,%ebx
 804ae76:	8d 45 e8             	lea    -0x18(%ebp),%eax
 804ae79:	83 ec 04             	sub    $0x4,%esp
 804ae7c:	ff 75 f0             	pushl  -0x10(%ebp)
 804ae7f:	8d 55 08             	lea    0x8(%ebp),%edx
 804ae82:	52                   	push   %edx
 804ae83:	50                   	push   %eax
 804ae84:	e8 cf 03 00 00       	call   804b258 <_ZNK9__gnu_cxx17__normal_iteratorIP4taskSt6vectorIS1_SaIS1_EEEplEi>
 804ae89:	83 c4 0c             	add    $0xc,%esp
 804ae8c:	83 ec 0c             	sub    $0xc,%esp
 804ae8f:	8d 45 e8             	lea    -0x18(%ebp),%eax
 804ae92:	50                   	push   %eax
 804ae93:	e8 e6 fe ff ff       	call   804ad7e <_ZNK9__gnu_cxx17__normal_iteratorIP4taskSt6vectorIS1_SaIS1_EEEdeEv>
 804ae98:	83 c4 10             	add    $0x10,%esp
 804ae9b:	83 ec 0c             	sub    $0xc,%esp
 804ae9e:	50                   	push   %eax
 804ae9f:	e8 14 f8 ff ff       	call   804a6b8 <_ZSt4moveIR4taskEONSt16remove_referenceIT_E4typeEOS3_>
 804aea4:	83 c4 10             	add    $0x10,%esp
 804aea7:	8b 10                	mov    (%eax),%edx
 804aea9:	89 13                	mov    %edx,(%ebx)
 804aeab:	8b 50 04             	mov    0x4(%eax),%edx
 804aeae:	89 53 04             	mov    %edx,0x4(%ebx)
 804aeb1:	8b 50 08             	mov    0x8(%eax),%edx
 804aeb4:	89 53 08             	mov    %edx,0x8(%ebx)
 804aeb7:	8b 50 0c             	mov    0xc(%eax),%edx
 804aeba:	89 53 0c             	mov    %edx,0xc(%ebx)
 804aebd:	8b 50 10             	mov    0x10(%eax),%edx
 804aec0:	89 53 10             	mov    %edx,0x10(%ebx)
 804aec3:	8b 50 14             	mov    0x14(%eax),%edx
 804aec6:	89 53 14             	mov    %edx,0x14(%ebx)
 804aec9:	8b 40 18             	mov    0x18(%eax),%eax
 804aecc:	89 43 18             	mov    %eax,0x18(%ebx)
 804aecf:	8b 45 f0             	mov    -0x10(%ebp),%eax
 804aed2:	89 45 0c             	mov    %eax,0xc(%ebp)
 804aed5:	8b 45 0c             	mov    0xc(%ebp),%eax
 804aed8:	83 e8 01             	sub    $0x1,%eax
 804aedb:	89 c2                	mov    %eax,%edx
 804aedd:	c1 ea 1f             	shr    $0x1f,%edx
 804aee0:	01 d0                	add    %edx,%eax
 804aee2:	d1 f8                	sar    %eax
 804aee4:	89 45 f0             	mov    %eax,-0x10(%ebp)
 804aee7:	e9 17 ff ff ff       	jmp    804ae03 <_ZSt11__push_heapIN9__gnu_cxx17__normal_iteratorIP4taskSt6vectorIS2_SaIS2_EEEEiS2_NS0_5__ops14_Iter_comp_valI12compare_taskEEEvT_T0_SD_T1_T2_+0x24>
 804aeec:	8d 45 e8             	lea    -0x18(%ebp),%eax
 804aeef:	83 ec 04             	sub    $0x4,%esp
 804aef2:	ff 75 0c             	pushl  0xc(%ebp)
 804aef5:	8d 55 08             	lea    0x8(%ebp),%edx
 804aef8:	52                   	push   %edx
 804aef9:	50                   	push   %eax
 804aefa:	e8 59 03 00 00       	call   804b258 <_ZNK9__gnu_cxx17__normal_iteratorIP4taskSt6vectorIS1_SaIS1_EEEplEi>
 804aeff:	83 c4 0c             	add    $0xc,%esp
 804af02:	83 ec 0c             	sub    $0xc,%esp
 804af05:	8d 45 e8             	lea    -0x18(%ebp),%eax
 804af08:	50                   	push   %eax
 804af09:	e8 70 fe ff ff       	call   804ad7e <_ZNK9__gnu_cxx17__normal_iteratorIP4taskSt6vectorIS1_SaIS1_EEEdeEv>
 804af0e:	83 c4 10             	add    $0x10,%esp
 804af11:	89 c3                	mov    %eax,%ebx
 804af13:	83 ec 0c             	sub    $0xc,%esp
 804af16:	8d 45 14             	lea    0x14(%ebp),%eax
 804af19:	50                   	push   %eax
 804af1a:	e8 99 f7 ff ff       	call   804a6b8 <_ZSt4moveIR4taskEONSt16remove_referenceIT_E4typeEOS3_>
 804af1f:	83 c4 10             	add    $0x10,%esp
 804af22:	8b 10                	mov    (%eax),%edx
 804af24:	89 13                	mov    %edx,(%ebx)
 804af26:	8b 50 04             	mov    0x4(%eax),%edx
 804af29:	89 53 04             	mov    %edx,0x4(%ebx)
 804af2c:	8b 50 08             	mov    0x8(%eax),%edx
 804af2f:	89 53 08             	mov    %edx,0x8(%ebx)
 804af32:	8b 50 0c             	mov    0xc(%eax),%edx
 804af35:	89 53 0c             	mov    %edx,0xc(%ebx)
 804af38:	8b 50 10             	mov    0x10(%eax),%edx
 804af3b:	89 53 10             	mov    %edx,0x10(%ebx)
 804af3e:	8b 50 14             	mov    0x14(%eax),%edx
 804af41:	89 53 14             	mov    %edx,0x14(%ebx)
 804af44:	8b 40 18             	mov    0x18(%eax),%eax
 804af47:	89 43 18             	mov    %eax,0x18(%ebx)
 804af4a:	90                   	nop
 804af4b:	8b 45 f4             	mov    -0xc(%ebp),%eax
 804af4e:	65 33 05 14 00 00 00 	xor    %gs:0x14,%eax
 804af55:	74 05                	je     804af5c <_ZSt11__push_heapIN9__gnu_cxx17__normal_iteratorIP4taskSt6vectorIS2_SaIS2_EEEEiS2_NS0_5__ops14_Iter_comp_valI12compare_taskEEEvT_T0_SD_T1_T2_+0x17d>
 804af57:	e8 a4 d8 ff ff       	call   8048800 <__stack_chk_fail@plt>
 804af5c:	8b 5d fc             	mov    -0x4(%ebp),%ebx
 804af5f:	c9                   	leave  
 804af60:	c3                   	ret    
 804af61:	90                   	nop

0804af62 <_ZNKSt6vectorI4taskSaIS0_EE5beginEv>:
 804af62:	55                   	push   %ebp
 804af63:	89 e5                	mov    %esp,%ebp
 804af65:	83 ec 28             	sub    $0x28,%esp
 804af68:	8b 45 08             	mov    0x8(%ebp),%eax
 804af6b:	89 45 e4             	mov    %eax,-0x1c(%ebp)
 804af6e:	8b 45 0c             	mov    0xc(%ebp),%eax
 804af71:	89 45 e0             	mov    %eax,-0x20(%ebp)
 804af74:	65 a1 14 00 00 00    	mov    %gs:0x14,%eax
 804af7a:	89 45 f4             	mov    %eax,-0xc(%ebp)
 804af7d:	31 c0                	xor    %eax,%eax
 804af7f:	8b 45 e0             	mov    -0x20(%ebp),%eax
 804af82:	8b 00                	mov    (%eax),%eax
 804af84:	89 45 f0             	mov    %eax,-0x10(%ebp)
 804af87:	83 ec 08             	sub    $0x8,%esp
 804af8a:	8d 45 f0             	lea    -0x10(%ebp),%eax
 804af8d:	50                   	push   %eax
 804af8e:	ff 75 e4             	pushl  -0x1c(%ebp)
 804af91:	e8 94 07 00 00       	call   804b72a <_ZN9__gnu_cxx17__normal_iteratorIPK4taskSt6vectorIS1_SaIS1_EEEC1ERKS3_>
 804af96:	83 c4 10             	add    $0x10,%esp
 804af99:	8b 45 e4             	mov    -0x1c(%ebp),%eax
 804af9c:	8b 55 f4             	mov    -0xc(%ebp),%edx
 804af9f:	65 33 15 14 00 00 00 	xor    %gs:0x14,%edx
 804afa6:	74 05                	je     804afad <_ZNKSt6vectorI4taskSaIS0_EE5beginEv+0x4b>
 804afa8:	e8 53 d8 ff ff       	call   8048800 <__stack_chk_fail@plt>
 804afad:	c9                   	leave  
 804afae:	c2 04 00             	ret    $0x4
 804afb1:	90                   	nop

0804afb2 <_ZNK9__gnu_cxx17__normal_iteratorIPK4taskSt6vectorIS1_SaIS1_EEEdeEv>:
 804afb2:	55                   	push   %ebp
 804afb3:	89 e5                	mov    %esp,%ebp
 804afb5:	8b 45 08             	mov    0x8(%ebp),%eax
 804afb8:	8b 00                	mov    (%eax),%eax
 804afba:	5d                   	pop    %ebp
 804afbb:	c3                   	ret    

0804afbc <_ZN9__gnu_cxx17__normal_iteratorIP4taskSt6vectorIS1_SaIS1_EEEmmEv>:
 804afbc:	55                   	push   %ebp
 804afbd:	89 e5                	mov    %esp,%ebp
 804afbf:	8b 45 08             	mov    0x8(%ebp),%eax
 804afc2:	8b 00                	mov    (%eax),%eax
 804afc4:	8d 50 e4             	lea    -0x1c(%eax),%edx
 804afc7:	8b 45 08             	mov    0x8(%ebp),%eax
 804afca:	89 10                	mov    %edx,(%eax)
 804afcc:	8b 45 08             	mov    0x8(%ebp),%eax
 804afcf:	5d                   	pop    %ebp
 804afd0:	c3                   	ret    

0804afd1 <_ZSt10__pop_heapIN9__gnu_cxx17__normal_iteratorIP4taskSt6vectorIS2_SaIS2_EEEENS0_5__ops15_Iter_comp_iterI12compare_taskEEEvT_SC_SC_T0_>:
 804afd1:	55                   	push   %ebp
 804afd2:	89 e5                	mov    %esp,%ebp
 804afd4:	53                   	push   %ebx
 804afd5:	83 ec 24             	sub    $0x24,%esp
 804afd8:	65 a1 14 00 00 00    	mov    %gs:0x14,%eax
 804afde:	89 45 f4             	mov    %eax,-0xc(%ebp)
 804afe1:	31 c0                	xor    %eax,%eax
 804afe3:	83 ec 0c             	sub    $0xc,%esp
 804afe6:	8d 45 10             	lea    0x10(%ebp),%eax
 804afe9:	50                   	push   %eax
 804afea:	e8 8f fd ff ff       	call   804ad7e <_ZNK9__gnu_cxx17__normal_iteratorIP4taskSt6vectorIS1_SaIS1_EEEdeEv>
 804afef:	83 c4 10             	add    $0x10,%esp
 804aff2:	83 ec 0c             	sub    $0xc,%esp
 804aff5:	50                   	push   %eax
 804aff6:	e8 bd f6 ff ff       	call   804a6b8 <_ZSt4moveIR4taskEONSt16remove_referenceIT_E4typeEOS3_>
 804affb:	83 c4 10             	add    $0x10,%esp
 804affe:	8b 10                	mov    (%eax),%edx
 804b000:	89 55 d8             	mov    %edx,-0x28(%ebp)
 804b003:	8b 50 04             	mov    0x4(%eax),%edx
 804b006:	89 55 dc             	mov    %edx,-0x24(%ebp)
 804b009:	8b 50 08             	mov    0x8(%eax),%edx
 804b00c:	89 55 e0             	mov    %edx,-0x20(%ebp)
 804b00f:	8b 50 0c             	mov    0xc(%eax),%edx
 804b012:	89 55 e4             	mov    %edx,-0x1c(%ebp)
 804b015:	8b 50 10             	mov    0x10(%eax),%edx
 804b018:	89 55 e8             	mov    %edx,-0x18(%ebp)
 804b01b:	8b 50 14             	mov    0x14(%eax),%edx
 804b01e:	89 55 ec             	mov    %edx,-0x14(%ebp)
 804b021:	8b 40 18             	mov    0x18(%eax),%eax
 804b024:	89 45 f0             	mov    %eax,-0x10(%ebp)
 804b027:	83 ec 0c             	sub    $0xc,%esp
 804b02a:	8d 45 10             	lea    0x10(%ebp),%eax
 804b02d:	50                   	push   %eax
 804b02e:	e8 4b fd ff ff       	call   804ad7e <_ZNK9__gnu_cxx17__normal_iteratorIP4taskSt6vectorIS1_SaIS1_EEEdeEv>
 804b033:	83 c4 10             	add    $0x10,%esp
 804b036:	89 c3                	mov    %eax,%ebx
 804b038:	83 ec 0c             	sub    $0xc,%esp
 804b03b:	8d 45 08             	lea    0x8(%ebp),%eax
 804b03e:	50                   	push   %eax
 804b03f:	e8 3a fd ff ff       	call   804ad7e <_ZNK9__gnu_cxx17__normal_iteratorIP4taskSt6vectorIS1_SaIS1_EEEdeEv>
 804b044:	83 c4 10             	add    $0x10,%esp
 804b047:	83 ec 0c             	sub    $0xc,%esp
 804b04a:	50                   	push   %eax
 804b04b:	e8 68 f6 ff ff       	call   804a6b8 <_ZSt4moveIR4taskEONSt16remove_referenceIT_E4typeEOS3_>
 804b050:	83 c4 10             	add    $0x10,%esp
 804b053:	8b 10                	mov    (%eax),%edx
 804b055:	89 13                	mov    %edx,(%ebx)
 804b057:	8b 50 04             	mov    0x4(%eax),%edx
 804b05a:	89 53 04             	mov    %edx,0x4(%ebx)
 804b05d:	8b 50 08             	mov    0x8(%eax),%edx
 804b060:	89 53 08             	mov    %edx,0x8(%ebx)
 804b063:	8b 50 0c             	mov    0xc(%eax),%edx
 804b066:	89 53 0c             	mov    %edx,0xc(%ebx)
 804b069:	8b 50 10             	mov    0x10(%eax),%edx
 804b06c:	89 53 10             	mov    %edx,0x10(%ebx)
 804b06f:	8b 50 14             	mov    0x14(%eax),%edx
 804b072:	89 53 14             	mov    %edx,0x14(%ebx)
 804b075:	8b 40 18             	mov    0x18(%eax),%eax
 804b078:	89 43 18             	mov    %eax,0x18(%ebx)
 804b07b:	83 ec 0c             	sub    $0xc,%esp
 804b07e:	8d 45 d8             	lea    -0x28(%ebp),%eax
 804b081:	50                   	push   %eax
 804b082:	e8 31 f6 ff ff       	call   804a6b8 <_ZSt4moveIR4taskEONSt16remove_referenceIT_E4typeEOS3_>
 804b087:	83 c4 10             	add    $0x10,%esp
 804b08a:	89 c3                	mov    %eax,%ebx
 804b08c:	83 ec 08             	sub    $0x8,%esp
 804b08f:	8d 45 08             	lea    0x8(%ebp),%eax
 804b092:	50                   	push   %eax
 804b093:	8d 45 0c             	lea    0xc(%ebp),%eax
 804b096:	50                   	push   %eax
 804b097:	e8 ec fc ff ff       	call   804ad88 <_ZN9__gnu_cxxmiIP4taskSt6vectorIS1_SaIS1_EEEENS_17__normal_iteratorIT_T0_E15difference_typeERKS9_SC_>
 804b09c:	83 c4 10             	add    $0x10,%esp
 804b09f:	89 c2                	mov    %eax,%edx
 804b0a1:	83 ec 04             	sub    $0x4,%esp
 804b0a4:	0f b6 45 14          	movzbl 0x14(%ebp),%eax
 804b0a8:	50                   	push   %eax
 804b0a9:	ff 73 18             	pushl  0x18(%ebx)
 804b0ac:	ff 73 14             	pushl  0x14(%ebx)
 804b0af:	ff 73 10             	pushl  0x10(%ebx)
 804b0b2:	ff 73 0c             	pushl  0xc(%ebx)
 804b0b5:	ff 73 08             	pushl  0x8(%ebx)
 804b0b8:	ff 73 04             	pushl  0x4(%ebx)
 804b0bb:	ff 33                	pushl  (%ebx)
 804b0bd:	52                   	push   %edx
 804b0be:	6a 00                	push   $0x0
 804b0c0:	ff 75 08             	pushl  0x8(%ebp)
 804b0c3:	e8 f2 01 00 00       	call   804b2ba <_ZSt13__adjust_heapIN9__gnu_cxx17__normal_iteratorIP4taskSt6vectorIS2_SaIS2_EEEEiS2_NS0_5__ops15_Iter_comp_iterI12compare_taskEEEvT_T0_SD_T1_T2_>
 804b0c8:	83 c4 30             	add    $0x30,%esp
 804b0cb:	90                   	nop
 804b0cc:	8b 45 f4             	mov    -0xc(%ebp),%eax
 804b0cf:	65 33 05 14 00 00 00 	xor    %gs:0x14,%eax
 804b0d6:	74 05                	je     804b0dd <_ZSt10__pop_heapIN9__gnu_cxx17__normal_iteratorIP4taskSt6vectorIS2_SaIS2_EEEENS0_5__ops15_Iter_comp_iterI12compare_taskEEEvT_SC_SC_T0_+0x10c>
 804b0d8:	e8 23 d7 ff ff       	call   8048800 <__stack_chk_fail@plt>
 804b0dd:	8b 5d fc             	mov    -0x4(%ebp),%ebx
 804b0e0:	c9                   	leave  
 804b0e1:	c3                   	ret    

0804b0e2 <_ZNSt16allocator_traitsISaI4taskEE7destroyIS0_EEvRS1_PT_>:
 804b0e2:	55                   	push   %ebp
 804b0e3:	89 e5                	mov    %esp,%ebp
 804b0e5:	83 ec 08             	sub    $0x8,%esp
 804b0e8:	83 ec 08             	sub    $0x8,%esp
 804b0eb:	ff 75 0c             	pushl  0xc(%ebp)
 804b0ee:	ff 75 08             	pushl  0x8(%ebp)
 804b0f1:	e8 44 06 00 00       	call   804b73a <_ZN9__gnu_cxx13new_allocatorI4taskE7destroyIS1_EEvPT_>
 804b0f6:	83 c4 10             	add    $0x10,%esp
 804b0f9:	90                   	nop
 804b0fa:	c9                   	leave  
 804b0fb:	c3                   	ret    

0804b0fc <_ZNKSt6vectorI4taskSaIS0_EE3endEv>:
 804b0fc:	55                   	push   %ebp
 804b0fd:	89 e5                	mov    %esp,%ebp
 804b0ff:	83 ec 28             	sub    $0x28,%esp
 804b102:	8b 45 08             	mov    0x8(%ebp),%eax
 804b105:	89 45 e4             	mov    %eax,-0x1c(%ebp)
 804b108:	8b 45 0c             	mov    0xc(%ebp),%eax
 804b10b:	89 45 e0             	mov    %eax,-0x20(%ebp)
 804b10e:	65 a1 14 00 00 00    	mov    %gs:0x14,%eax
 804b114:	89 45 f4             	mov    %eax,-0xc(%ebp)
 804b117:	31 c0                	xor    %eax,%eax
 804b119:	8b 45 e0             	mov    -0x20(%ebp),%eax
 804b11c:	8b 40 04             	mov    0x4(%eax),%eax
 804b11f:	89 45 f0             	mov    %eax,-0x10(%ebp)
 804b122:	83 ec 08             	sub    $0x8,%esp
 804b125:	8d 45 f0             	lea    -0x10(%ebp),%eax
 804b128:	50                   	push   %eax
 804b129:	ff 75 e4             	pushl  -0x1c(%ebp)
 804b12c:	e8 f9 05 00 00       	call   804b72a <_ZN9__gnu_cxx17__normal_iteratorIPK4taskSt6vectorIS1_SaIS1_EEEC1ERKS3_>
 804b131:	83 c4 10             	add    $0x10,%esp
 804b134:	8b 45 e4             	mov    -0x1c(%ebp),%eax
 804b137:	8b 55 f4             	mov    -0xc(%ebp),%edx
 804b13a:	65 33 15 14 00 00 00 	xor    %gs:0x14,%edx
 804b141:	74 05                	je     804b148 <_ZNKSt6vectorI4taskSaIS0_EE3endEv+0x4c>
 804b143:	e8 b8 d6 ff ff       	call   8048800 <__stack_chk_fail@plt>
 804b148:	c9                   	leave  
 804b149:	c2 04 00             	ret    $0x4

0804b14c <_ZN9__gnu_cxxeqIPK4taskSt6vectorIS1_SaIS1_EEEEbRKNS_17__normal_iteratorIT_T0_EESC_>:
 804b14c:	55                   	push   %ebp
 804b14d:	89 e5                	mov    %esp,%ebp
 804b14f:	53                   	push   %ebx
 804b150:	83 ec 04             	sub    $0x4,%esp
 804b153:	83 ec 0c             	sub    $0xc,%esp
 804b156:	ff 75 08             	pushl  0x8(%ebp)
 804b159:	e8 e2 05 00 00       	call   804b740 <_ZNK9__gnu_cxx17__normal_iteratorIPK4taskSt6vectorIS1_SaIS1_EEE4baseEv>
 804b15e:	83 c4 10             	add    $0x10,%esp
 804b161:	8b 18                	mov    (%eax),%ebx
 804b163:	83 ec 0c             	sub    $0xc,%esp
 804b166:	ff 75 0c             	pushl  0xc(%ebp)
 804b169:	e8 d2 05 00 00       	call   804b740 <_ZNK9__gnu_cxx17__normal_iteratorIPK4taskSt6vectorIS1_SaIS1_EEE4baseEv>
 804b16e:	83 c4 10             	add    $0x10,%esp
 804b171:	8b 00                	mov    (%eax),%eax
 804b173:	39 c3                	cmp    %eax,%ebx
 804b175:	0f 94 c0             	sete   %al
 804b178:	8b 5d fc             	mov    -0x4(%ebp),%ebx
 804b17b:	c9                   	leave  
 804b17c:	c3                   	ret    
 804b17d:	90                   	nop

0804b17e <_ZNSaI4taskEC1Ev>:
 804b17e:	55                   	push   %ebp
 804b17f:	89 e5                	mov    %esp,%ebp
 804b181:	83 ec 08             	sub    $0x8,%esp
 804b184:	83 ec 0c             	sub    $0xc,%esp
 804b187:	ff 75 08             	pushl  0x8(%ebp)
 804b18a:	e8 b9 05 00 00       	call   804b748 <_ZN9__gnu_cxx13new_allocatorI4taskEC1Ev>
 804b18f:	83 c4 10             	add    $0x10,%esp
 804b192:	90                   	nop
 804b193:	c9                   	leave  
 804b194:	c3                   	ret    
 804b195:	90                   	nop

0804b196 <_ZN9__gnu_cxx13new_allocatorI4taskED1Ev>:
 804b196:	55                   	push   %ebp
 804b197:	89 e5                	mov    %esp,%ebp
 804b199:	90                   	nop
 804b19a:	5d                   	pop    %ebp
 804b19b:	c3                   	ret    

0804b19c <_ZNSt16allocator_traitsISaI4taskEE10deallocateERS1_PS0_j>:
 804b19c:	55                   	push   %ebp
 804b19d:	89 e5                	mov    %esp,%ebp
 804b19f:	83 ec 08             	sub    $0x8,%esp
 804b1a2:	83 ec 04             	sub    $0x4,%esp
 804b1a5:	ff 75 10             	pushl  0x10(%ebp)
 804b1a8:	ff 75 0c             	pushl  0xc(%ebp)
 804b1ab:	ff 75 08             	pushl  0x8(%ebp)
 804b1ae:	e8 9b 05 00 00       	call   804b74e <_ZN9__gnu_cxx13new_allocatorI4taskE10deallocateEPS1_j>
 804b1b3:	83 c4 10             	add    $0x10,%esp
 804b1b6:	90                   	nop
 804b1b7:	c9                   	leave  
 804b1b8:	c3                   	ret    

0804b1b9 <_ZNSt12_Destroy_auxILb1EE9__destroyIP4taskEEvT_S4_>:
 804b1b9:	55                   	push   %ebp
 804b1ba:	89 e5                	mov    %esp,%ebp
 804b1bc:	90                   	nop
 804b1bd:	5d                   	pop    %ebp
 804b1be:	c3                   	ret    
 804b1bf:	90                   	nop

0804b1c0 <_ZNSt12_Vector_baseI4taskSaIS0_EE12_Vector_implC1EOS1_>:
 804b1c0:	55                   	push   %ebp
 804b1c1:	89 e5                	mov    %esp,%ebp
 804b1c3:	83 ec 08             	sub    $0x8,%esp
 804b1c6:	83 ec 0c             	sub    $0xc,%esp
 804b1c9:	ff 75 0c             	pushl  0xc(%ebp)
 804b1cc:	e8 b1 f7 ff ff       	call   804a982 <_ZSt4moveIRSaI4taskEEONSt16remove_referenceIT_E4typeEOS4_>
 804b1d1:	83 c4 10             	add    $0x10,%esp
 804b1d4:	83 ec 08             	sub    $0x8,%esp
 804b1d7:	50                   	push   %eax
 804b1d8:	ff 75 08             	pushl  0x8(%ebp)
 804b1db:	e8 86 05 00 00       	call   804b766 <_ZNSaI4taskEC1ERKS0_>
 804b1e0:	83 c4 10             	add    $0x10,%esp
 804b1e3:	8b 45 08             	mov    0x8(%ebp),%eax
 804b1e6:	c7 00 00 00 00 00    	movl   $0x0,(%eax)
 804b1ec:	8b 45 08             	mov    0x8(%ebp),%eax
 804b1ef:	c7 40 04 00 00 00 00 	movl   $0x0,0x4(%eax)
 804b1f6:	8b 45 08             	mov    0x8(%ebp),%eax
 804b1f9:	c7 40 08 00 00 00 00 	movl   $0x0,0x8(%eax)
 804b200:	90                   	nop
 804b201:	c9                   	leave  
 804b202:	c3                   	ret    
 804b203:	90                   	nop

0804b204 <_ZNSt12_Vector_baseI4taskSaIS0_EE12_Vector_impl12_M_swap_dataERS3_>:
 804b204:	55                   	push   %ebp
 804b205:	89 e5                	mov    %esp,%ebp
 804b207:	83 ec 08             	sub    $0x8,%esp
 804b20a:	8b 55 0c             	mov    0xc(%ebp),%edx
 804b20d:	8b 45 08             	mov    0x8(%ebp),%eax
 804b210:	83 ec 08             	sub    $0x8,%esp
 804b213:	52                   	push   %edx
 804b214:	50                   	push   %eax
 804b215:	e8 6e 05 00 00       	call   804b788 <_ZSt4swapIP4taskEvRT_S3_>
 804b21a:	83 c4 10             	add    $0x10,%esp
 804b21d:	8b 45 0c             	mov    0xc(%ebp),%eax
 804b220:	8d 50 04             	lea    0x4(%eax),%edx
 804b223:	8b 45 08             	mov    0x8(%ebp),%eax
 804b226:	83 c0 04             	add    $0x4,%eax
 804b229:	83 ec 08             	sub    $0x8,%esp
 804b22c:	52                   	push   %edx
 804b22d:	50                   	push   %eax
 804b22e:	e8 55 05 00 00       	call   804b788 <_ZSt4swapIP4taskEvRT_S3_>
 804b233:	83 c4 10             	add    $0x10,%esp
 804b236:	8b 45 0c             	mov    0xc(%ebp),%eax
 804b239:	8d 50 08             	lea    0x8(%eax),%edx
 804b23c:	8b 45 08             	mov    0x8(%ebp),%eax
 804b23f:	83 c0 08             	add    $0x8,%eax
 804b242:	83 ec 08             	sub    $0x8,%esp
 804b245:	52                   	push   %edx
 804b246:	50                   	push   %eax
 804b247:	e8 3c 05 00 00       	call   804b788 <_ZSt4swapIP4taskEvRT_S3_>
 804b24c:	83 c4 10             	add    $0x10,%esp
 804b24f:	90                   	nop
 804b250:	c9                   	leave  
 804b251:	c3                   	ret    

0804b252 <_ZN9__gnu_cxx5__ops15_Iter_comp_iterI12compare_taskEC1ES2_>:
 804b252:	55                   	push   %ebp
 804b253:	89 e5                	mov    %esp,%ebp
 804b255:	90                   	nop
 804b256:	5d                   	pop    %ebp
 804b257:	c3                   	ret    

0804b258 <_ZNK9__gnu_cxx17__normal_iteratorIP4taskSt6vectorIS1_SaIS1_EEEplEi>:
 804b258:	55                   	push   %ebp
 804b259:	89 e5                	mov    %esp,%ebp
 804b25b:	83 ec 28             	sub    $0x28,%esp
 804b25e:	8b 45 08             	mov    0x8(%ebp),%eax
 804b261:	89 45 e4             	mov    %eax,-0x1c(%ebp)
 804b264:	8b 45 0c             	mov    0xc(%ebp),%eax
 804b267:	89 45 e0             	mov    %eax,-0x20(%ebp)
 804b26a:	65 a1 14 00 00 00    	mov    %gs:0x14,%eax
 804b270:	89 45 f4             	mov    %eax,-0xc(%ebp)
 804b273:	31 c0                	xor    %eax,%eax
 804b275:	8b 45 e0             	mov    -0x20(%ebp),%eax
 804b278:	8b 10                	mov    (%eax),%edx
 804b27a:	8b 45 10             	mov    0x10(%ebp),%eax
 804b27d:	c1 e0 02             	shl    $0x2,%eax
 804b280:	8d 0c c5 00 00 00 00 	lea    0x0(,%eax,8),%ecx
 804b287:	29 c1                	sub    %eax,%ecx
 804b289:	89 c8                	mov    %ecx,%eax
 804b28b:	01 d0                	add    %edx,%eax
 804b28d:	89 45 f0             	mov    %eax,-0x10(%ebp)
 804b290:	83 ec 08             	sub    $0x8,%esp
 804b293:	8d 45 f0             	lea    -0x10(%ebp),%eax
 804b296:	50                   	push   %eax
 804b297:	ff 75 e4             	pushl  -0x1c(%ebp)
 804b29a:	e8 33 f7 ff ff       	call   804a9d2 <_ZN9__gnu_cxx17__normal_iteratorIP4taskSt6vectorIS1_SaIS1_EEEC1ERKS2_>
 804b29f:	83 c4 10             	add    $0x10,%esp
 804b2a2:	8b 45 e4             	mov    -0x1c(%ebp),%eax
 804b2a5:	8b 55 f4             	mov    -0xc(%ebp),%edx
 804b2a8:	65 33 15 14 00 00 00 	xor    %gs:0x14,%edx
 804b2af:	74 05                	je     804b2b6 <_ZNK9__gnu_cxx17__normal_iteratorIP4taskSt6vectorIS1_SaIS1_EEEplEi+0x5e>
 804b2b1:	e8 4a d5 ff ff       	call   8048800 <__stack_chk_fail@plt>
 804b2b6:	c9                   	leave  
 804b2b7:	c2 04 00             	ret    $0x4

0804b2ba <_ZSt13__adjust_heapIN9__gnu_cxx17__normal_iteratorIP4taskSt6vectorIS2_SaIS2_EEEEiS2_NS0_5__ops15_Iter_comp_iterI12compare_taskEEEvT_T0_SD_T1_T2_>:
 804b2ba:	55                   	push   %ebp
 804b2bb:	89 e5                	mov    %esp,%ebp
 804b2bd:	56                   	push   %esi
 804b2be:	53                   	push   %ebx
 804b2bf:	83 ec 30             	sub    $0x30,%esp
 804b2c2:	65 a1 14 00 00 00    	mov    %gs:0x14,%eax
 804b2c8:	89 45 f4             	mov    %eax,-0xc(%ebp)
 804b2cb:	31 c0                	xor    %eax,%eax
 804b2cd:	8b 45 0c             	mov    0xc(%ebp),%eax
 804b2d0:	89 45 f0             	mov    %eax,-0x10(%ebp)
 804b2d3:	8b 45 0c             	mov    0xc(%ebp),%eax
 804b2d6:	89 45 ec             	mov    %eax,-0x14(%ebp)
 804b2d9:	8b 45 10             	mov    0x10(%ebp),%eax
 804b2dc:	83 e8 01             	sub    $0x1,%eax
 804b2df:	89 c2                	mov    %eax,%edx
 804b2e1:	c1 ea 1f             	shr    $0x1f,%edx
 804b2e4:	01 d0                	add    %edx,%eax
 804b2e6:	d1 f8                	sar    %eax
 804b2e8:	3b 45 ec             	cmp    -0x14(%ebp),%eax
 804b2eb:	0f 8e e3 00 00 00    	jle    804b3d4 <_ZSt13__adjust_heapIN9__gnu_cxx17__normal_iteratorIP4taskSt6vectorIS2_SaIS2_EEEEiS2_NS0_5__ops15_Iter_comp_iterI12compare_taskEEEvT_T0_SD_T1_T2_+0x11a>
 804b2f1:	8b 45 ec             	mov    -0x14(%ebp),%eax
 804b2f4:	83 c0 01             	add    $0x1,%eax
 804b2f7:	01 c0                	add    %eax,%eax
 804b2f9:	89 45 ec             	mov    %eax,-0x14(%ebp)
 804b2fc:	8b 45 ec             	mov    -0x14(%ebp),%eax
 804b2ff:	8d 50 ff             	lea    -0x1(%eax),%edx
 804b302:	8d 45 e4             	lea    -0x1c(%ebp),%eax
 804b305:	83 ec 04             	sub    $0x4,%esp
 804b308:	52                   	push   %edx
 804b309:	8d 55 08             	lea    0x8(%ebp),%edx
 804b30c:	52                   	push   %edx
 804b30d:	50                   	push   %eax
 804b30e:	e8 45 ff ff ff       	call   804b258 <_ZNK9__gnu_cxx17__normal_iteratorIP4taskSt6vectorIS1_SaIS1_EEEplEi>
 804b313:	83 c4 0c             	add    $0xc,%esp
 804b316:	8d 45 e8             	lea    -0x18(%ebp),%eax
 804b319:	83 ec 04             	sub    $0x4,%esp
 804b31c:	ff 75 ec             	pushl  -0x14(%ebp)
 804b31f:	8d 55 08             	lea    0x8(%ebp),%edx
 804b322:	52                   	push   %edx
 804b323:	50                   	push   %eax
 804b324:	e8 2f ff ff ff       	call   804b258 <_ZNK9__gnu_cxx17__normal_iteratorIP4taskSt6vectorIS1_SaIS1_EEEplEi>
 804b329:	83 c4 0c             	add    $0xc,%esp
 804b32c:	83 ec 04             	sub    $0x4,%esp
 804b32f:	ff 75 e4             	pushl  -0x1c(%ebp)
 804b332:	ff 75 e8             	pushl  -0x18(%ebp)
 804b335:	8d 45 30             	lea    0x30(%ebp),%eax
 804b338:	50                   	push   %eax
 804b339:	e8 ba 04 00 00       	call   804b7f8 <_ZN9__gnu_cxx5__ops15_Iter_comp_iterI12compare_taskEclINS_17__normal_iteratorIP4taskSt6vectorIS6_SaIS6_EEEESB_EEbT_T0_>
 804b33e:	83 c4 10             	add    $0x10,%esp
 804b341:	84 c0                	test   %al,%al
 804b343:	74 04                	je     804b349 <_ZSt13__adjust_heapIN9__gnu_cxx17__normal_iteratorIP4taskSt6vectorIS2_SaIS2_EEEEiS2_NS0_5__ops15_Iter_comp_iterI12compare_taskEEEvT_T0_SD_T1_T2_+0x8f>
 804b345:	83 6d ec 01          	subl   $0x1,-0x14(%ebp)
 804b349:	8d 45 dc             	lea    -0x24(%ebp),%eax
 804b34c:	83 ec 04             	sub    $0x4,%esp
 804b34f:	ff 75 0c             	pushl  0xc(%ebp)
 804b352:	8d 55 08             	lea    0x8(%ebp),%edx
 804b355:	52                   	push   %edx
 804b356:	50                   	push   %eax
 804b357:	e8 fc fe ff ff       	call   804b258 <_ZNK9__gnu_cxx17__normal_iteratorIP4taskSt6vectorIS1_SaIS1_EEEplEi>
 804b35c:	83 c4 0c             	add    $0xc,%esp
 804b35f:	83 ec 0c             	sub    $0xc,%esp
 804b362:	8d 45 dc             	lea    -0x24(%ebp),%eax
 804b365:	50                   	push   %eax
 804b366:	e8 13 fa ff ff       	call   804ad7e <_ZNK9__gnu_cxx17__normal_iteratorIP4taskSt6vectorIS1_SaIS1_EEEdeEv>
 804b36b:	83 c4 10             	add    $0x10,%esp
 804b36e:	89 c3                	mov    %eax,%ebx
 804b370:	8d 45 e0             	lea    -0x20(%ebp),%eax
 804b373:	83 ec 04             	sub    $0x4,%esp
 804b376:	ff 75 ec             	pushl  -0x14(%ebp)
 804b379:	8d 55 08             	lea    0x8(%ebp),%edx
 804b37c:	52                   	push   %edx
 804b37d:	50                   	push   %eax
 804b37e:	e8 d5 fe ff ff       	call   804b258 <_ZNK9__gnu_cxx17__normal_iteratorIP4taskSt6vectorIS1_SaIS1_EEEplEi>
 804b383:	83 c4 0c             	add    $0xc,%esp
 804b386:	83 ec 0c             	sub    $0xc,%esp
 804b389:	8d 45 e0             	lea    -0x20(%ebp),%eax
 804b38c:	50                   	push   %eax
 804b38d:	e8 ec f9 ff ff       	call   804ad7e <_ZNK9__gnu_cxx17__normal_iteratorIP4taskSt6vectorIS1_SaIS1_EEEdeEv>
 804b392:	83 c4 10             	add    $0x10,%esp
 804b395:	83 ec 0c             	sub    $0xc,%esp
 804b398:	50                   	push   %eax
 804b399:	e8 1a f3 ff ff       	call   804a6b8 <_ZSt4moveIR4taskEONSt16remove_referenceIT_E4typeEOS3_>
 804b39e:	83 c4 10             	add    $0x10,%esp
 804b3a1:	8b 10                	mov    (%eax),%edx
 804b3a3:	89 13                	mov    %edx,(%ebx)
 804b3a5:	8b 50 04             	mov    0x4(%eax),%edx
 804b3a8:	89 53 04             	mov    %edx,0x4(%ebx)
 804b3ab:	8b 50 08             	mov    0x8(%eax),%edx
 804b3ae:	89 53 08             	mov    %edx,0x8(%ebx)
 804b3b1:	8b 50 0c             	mov    0xc(%eax),%edx
 804b3b4:	89 53 0c             	mov    %edx,0xc(%ebx)
 804b3b7:	8b 50 10             	mov    0x10(%eax),%edx
 804b3ba:	89 53 10             	mov    %edx,0x10(%ebx)
 804b3bd:	8b 50 14             	mov    0x14(%eax),%edx
 804b3c0:	89 53 14             	mov    %edx,0x14(%ebx)
 804b3c3:	8b 40 18             	mov    0x18(%eax),%eax
 804b3c6:	89 43 18             	mov    %eax,0x18(%ebx)
 804b3c9:	8b 45 ec             	mov    -0x14(%ebp),%eax
 804b3cc:	89 45 0c             	mov    %eax,0xc(%ebp)
 804b3cf:	e9 05 ff ff ff       	jmp    804b2d9 <_ZSt13__adjust_heapIN9__gnu_cxx17__normal_iteratorIP4taskSt6vectorIS2_SaIS2_EEEEiS2_NS0_5__ops15_Iter_comp_iterI12compare_taskEEEvT_T0_SD_T1_T2_+0x1f>
 804b3d4:	8b 45 10             	mov    0x10(%ebp),%eax
 804b3d7:	83 e0 01             	and    $0x1,%eax
 804b3da:	85 c0                	test   %eax,%eax
 804b3dc:	0f 85 b0 00 00 00    	jne    804b492 <_ZSt13__adjust_heapIN9__gnu_cxx17__normal_iteratorIP4taskSt6vectorIS2_SaIS2_EEEEiS2_NS0_5__ops15_Iter_comp_iterI12compare_taskEEEvT_T0_SD_T1_T2_+0x1d8>
 804b3e2:	8b 45 10             	mov    0x10(%ebp),%eax
 804b3e5:	83 e8 02             	sub    $0x2,%eax
 804b3e8:	89 c2                	mov    %eax,%edx
 804b3ea:	c1 ea 1f             	shr    $0x1f,%edx
 804b3ed:	01 d0                	add    %edx,%eax
 804b3ef:	d1 f8                	sar    %eax
 804b3f1:	3b 45 ec             	cmp    -0x14(%ebp),%eax
 804b3f4:	0f 85 98 00 00 00    	jne    804b492 <_ZSt13__adjust_heapIN9__gnu_cxx17__normal_iteratorIP4taskSt6vectorIS2_SaIS2_EEEEiS2_NS0_5__ops15_Iter_comp_iterI12compare_taskEEEvT_T0_SD_T1_T2_+0x1d8>
 804b3fa:	8b 45 ec             	mov    -0x14(%ebp),%eax
 804b3fd:	83 c0 01             	add    $0x1,%eax
 804b400:	01 c0                	add    %eax,%eax
 804b402:	89 45 ec             	mov    %eax,-0x14(%ebp)
 804b405:	8d 45 dc             	lea    -0x24(%ebp),%eax
 804b408:	83 ec 04             	sub    $0x4,%esp
 804b40b:	ff 75 0c             	pushl  0xc(%ebp)
 804b40e:	8d 55 08             	lea    0x8(%ebp),%edx
 804b411:	52                   	push   %edx
 804b412:	50                   	push   %eax
 804b413:	e8 40 fe ff ff       	call   804b258 <_ZNK9__gnu_cxx17__normal_iteratorIP4taskSt6vectorIS1_SaIS1_EEEplEi>
 804b418:	83 c4 0c             	add    $0xc,%esp
 804b41b:	83 ec 0c             	sub    $0xc,%esp
 804b41e:	8d 45 dc             	lea    -0x24(%ebp),%eax
 804b421:	50                   	push   %eax
 804b422:	e8 57 f9 ff ff       	call   804ad7e <_ZNK9__gnu_cxx17__normal_iteratorIP4taskSt6vectorIS1_SaIS1_EEEdeEv>
 804b427:	83 c4 10             	add    $0x10,%esp
 804b42a:	89 c3                	mov    %eax,%ebx
 804b42c:	8b 45 ec             	mov    -0x14(%ebp),%eax
 804b42f:	8d 50 ff             	lea    -0x1(%eax),%edx
 804b432:	8d 45 e0             	lea    -0x20(%ebp),%eax
 804b435:	83 ec 04             	sub    $0x4,%esp
 804b438:	52                   	push   %edx
 804b439:	8d 55 08             	lea    0x8(%ebp),%edx
 804b43c:	52                   	push   %edx
 804b43d:	50                   	push   %eax
 804b43e:	e8 15 fe ff ff       	call   804b258 <_ZNK9__gnu_cxx17__normal_iteratorIP4taskSt6vectorIS1_SaIS1_EEEplEi>
 804b443:	83 c4 0c             	add    $0xc,%esp
 804b446:	83 ec 0c             	sub    $0xc,%esp
 804b449:	8d 45 e0             	lea    -0x20(%ebp),%eax
 804b44c:	50                   	push   %eax
 804b44d:	e8 2c f9 ff ff       	call   804ad7e <_ZNK9__gnu_cxx17__normal_iteratorIP4taskSt6vectorIS1_SaIS1_EEEdeEv>
 804b452:	83 c4 10             	add    $0x10,%esp
 804b455:	83 ec 0c             	sub    $0xc,%esp
 804b458:	50                   	push   %eax
 804b459:	e8 5a f2 ff ff       	call   804a6b8 <_ZSt4moveIR4taskEONSt16remove_referenceIT_E4typeEOS3_>
 804b45e:	83 c4 10             	add    $0x10,%esp
 804b461:	8b 10                	mov    (%eax),%edx
 804b463:	89 13                	mov    %edx,(%ebx)
 804b465:	8b 50 04             	mov    0x4(%eax),%edx
 804b468:	89 53 04             	mov    %edx,0x4(%ebx)
 804b46b:	8b 50 08             	mov    0x8(%eax),%edx
 804b46e:	89 53 08             	mov    %edx,0x8(%ebx)
 804b471:	8b 50 0c             	mov    0xc(%eax),%edx
 804b474:	89 53 0c             	mov    %edx,0xc(%ebx)
 804b477:	8b 50 10             	mov    0x10(%eax),%edx
 804b47a:	89 53 10             	mov    %edx,0x10(%ebx)
 804b47d:	8b 50 14             	mov    0x14(%eax),%edx
 804b480:	89 53 14             	mov    %edx,0x14(%ebx)
 804b483:	8b 40 18             	mov    0x18(%eax),%eax
 804b486:	89 43 18             	mov    %eax,0x18(%ebx)
 804b489:	8b 45 ec             	mov    -0x14(%ebp),%eax
 804b48c:	83 e8 01             	sub    $0x1,%eax
 804b48f:	89 45 0c             	mov    %eax,0xc(%ebp)
 804b492:	8d 45 d7             	lea    -0x29(%ebp),%eax
 804b495:	83 ec 08             	sub    $0x8,%esp
 804b498:	0f b6 55 30          	movzbl 0x30(%ebp),%edx
 804b49c:	52                   	push   %edx
 804b49d:	50                   	push   %eax
 804b49e:	e8 94 03 00 00       	call   804b837 <_ZN9__gnu_cxx5__ops15__iter_comp_valI12compare_taskEENS0_14_Iter_comp_valIT_EENS0_15_Iter_comp_iterIS4_EE>
 804b4a3:	83 c4 0c             	add    $0xc,%esp
 804b4a6:	83 ec 0c             	sub    $0xc,%esp
 804b4a9:	8d 45 14             	lea    0x14(%ebp),%eax
 804b4ac:	50                   	push   %eax
 804b4ad:	e8 06 f2 ff ff       	call   804a6b8 <_ZSt4moveIR4taskEONSt16remove_referenceIT_E4typeEOS3_>
 804b4b2:	83 c4 10             	add    $0x10,%esp
 804b4b5:	83 ec 04             	sub    $0x4,%esp
 804b4b8:	56                   	push   %esi
 804b4b9:	ff 70 18             	pushl  0x18(%eax)
 804b4bc:	ff 70 14             	pushl  0x14(%eax)
 804b4bf:	ff 70 10             	pushl  0x10(%eax)
 804b4c2:	ff 70 0c             	pushl  0xc(%eax)
 804b4c5:	ff 70 08             	pushl  0x8(%eax)
 804b4c8:	ff 70 04             	pushl  0x4(%eax)
 804b4cb:	ff 30                	pushl  (%eax)
 804b4cd:	ff 75 f0             	pushl  -0x10(%ebp)
 804b4d0:	ff 75 0c             	pushl  0xc(%ebp)
 804b4d3:	ff 75 08             	pushl  0x8(%ebp)
 804b4d6:	e8 04 f9 ff ff       	call   804addf <_ZSt11__push_heapIN9__gnu_cxx17__normal_iteratorIP4taskSt6vectorIS2_SaIS2_EEEEiS2_NS0_5__ops14_Iter_comp_valI12compare_taskEEEvT_T0_SD_T1_T2_>
 804b4db:	83 c4 30             	add    $0x30,%esp
 804b4de:	90                   	nop
 804b4df:	8b 45 f4             	mov    -0xc(%ebp),%eax
 804b4e2:	65 33 05 14 00 00 00 	xor    %gs:0x14,%eax
 804b4e9:	74 05                	je     804b4f0 <_ZSt13__adjust_heapIN9__gnu_cxx17__normal_iteratorIP4taskSt6vectorIS2_SaIS2_EEEEiS2_NS0_5__ops15_Iter_comp_iterI12compare_taskEEEvT_T0_SD_T1_T2_+0x236>
 804b4eb:	e8 10 d3 ff ff       	call   8048800 <__stack_chk_fail@plt>
 804b4f0:	8d 65 f8             	lea    -0x8(%ebp),%esp
 804b4f3:	5b                   	pop    %ebx
 804b4f4:	5e                   	pop    %esi
 804b4f5:	5d                   	pop    %ebp
 804b4f6:	c3                   	ret    
 804b4f7:	90                   	nop

0804b4f8 <_ZN9__gnu_cxx13new_allocatorI4taskE9constructIS1_IRKS1_EEEvPT_DpOT0_>:
 804b4f8:	55                   	push   %ebp
 804b4f9:	89 e5                	mov    %esp,%ebp
 804b4fb:	53                   	push   %ebx
 804b4fc:	83 ec 04             	sub    $0x4,%esp
 804b4ff:	83 ec 0c             	sub    $0xc,%esp
 804b502:	ff 75 10             	pushl  0x10(%ebp)
 804b505:	e8 0a f6 ff ff       	call   804ab14 <_ZSt7forwardIRK4taskEOT_RNSt16remove_referenceIS3_E4typeE>
 804b50a:	83 c4 10             	add    $0x10,%esp
 804b50d:	89 c3                	mov    %eax,%ebx
 804b50f:	8b 45 0c             	mov    0xc(%ebp),%eax
 804b512:	83 ec 08             	sub    $0x8,%esp
 804b515:	50                   	push   %eax
 804b516:	6a 1c                	push   $0x1c
 804b518:	e8 74 ec ff ff       	call   804a191 <_ZnwjPv>
 804b51d:	83 c4 10             	add    $0x10,%esp
 804b520:	85 c0                	test   %eax,%eax
 804b522:	74 28                	je     804b54c <_ZN9__gnu_cxx13new_allocatorI4taskE9constructIS1_IRKS1_EEEvPT_DpOT0_+0x54>
 804b524:	8b 13                	mov    (%ebx),%edx
 804b526:	89 10                	mov    %edx,(%eax)
 804b528:	8b 53 04             	mov    0x4(%ebx),%edx
 804b52b:	89 50 04             	mov    %edx,0x4(%eax)
 804b52e:	8b 53 08             	mov    0x8(%ebx),%edx
 804b531:	89 50 08             	mov    %edx,0x8(%eax)
 804b534:	8b 53 0c             	mov    0xc(%ebx),%edx
 804b537:	89 50 0c             	mov    %edx,0xc(%eax)
 804b53a:	8b 53 10             	mov    0x10(%ebx),%edx
 804b53d:	89 50 10             	mov    %edx,0x10(%eax)
 804b540:	8b 53 14             	mov    0x14(%ebx),%edx
 804b543:	89 50 14             	mov    %edx,0x14(%eax)
 804b546:	8b 53 18             	mov    0x18(%ebx),%edx
 804b549:	89 50 18             	mov    %edx,0x18(%eax)
 804b54c:	90                   	nop
 804b54d:	8b 5d fc             	mov    -0x4(%ebp),%ebx
 804b550:	c9                   	leave  
 804b551:	c3                   	ret    

0804b552 <_ZNKSt6vectorI4taskSaIS0_EE12_M_check_lenEjPKc>:
 804b552:	55                   	push   %ebp
 804b553:	89 e5                	mov    %esp,%ebp
 804b555:	53                   	push   %ebx
 804b556:	83 ec 24             	sub    $0x24,%esp
 804b559:	8b 45 08             	mov    0x8(%ebp),%eax
 804b55c:	89 45 e4             	mov    %eax,-0x1c(%ebp)
 804b55f:	8b 45 10             	mov    0x10(%ebp),%eax
 804b562:	89 45 e0             	mov    %eax,-0x20(%ebp)
 804b565:	65 a1 14 00 00 00    	mov    %gs:0x14,%eax
 804b56b:	89 45 f4             	mov    %eax,-0xc(%ebp)
 804b56e:	31 c0                	xor    %eax,%eax
 804b570:	83 ec 0c             	sub    $0xc,%esp
 804b573:	ff 75 e4             	pushl  -0x1c(%ebp)
 804b576:	e8 d9 02 00 00       	call   804b854 <_ZNKSt6vectorI4taskSaIS0_EE8max_sizeEv>
 804b57b:	83 c4 10             	add    $0x10,%esp
 804b57e:	89 c3                	mov    %eax,%ebx
 804b580:	83 ec 0c             	sub    $0xc,%esp
 804b583:	ff 75 e4             	pushl  -0x1c(%ebp)
 804b586:	e8 d1 00 00 00       	call   804b65c <_ZNKSt6vectorI4taskSaIS0_EE4sizeEv>
 804b58b:	83 c4 10             	add    $0x10,%esp
 804b58e:	89 da                	mov    %ebx,%edx
 804b590:	29 c2                	sub    %eax,%edx
 804b592:	8b 45 0c             	mov    0xc(%ebp),%eax
 804b595:	39 c2                	cmp    %eax,%edx
 804b597:	0f 92 c0             	setb   %al
 804b59a:	84 c0                	test   %al,%al
 804b59c:	74 0b                	je     804b5a9 <_ZNKSt6vectorI4taskSaIS0_EE12_M_check_lenEjPKc+0x57>
 804b59e:	83 ec 0c             	sub    $0xc,%esp
 804b5a1:	ff 75 e0             	pushl  -0x20(%ebp)
 804b5a4:	e8 a7 d1 ff ff       	call   8048750 <_ZSt20__throw_length_errorPKc@plt>
 804b5a9:	83 ec 0c             	sub    $0xc,%esp
 804b5ac:	ff 75 e4             	pushl  -0x1c(%ebp)
 804b5af:	e8 a8 00 00 00       	call   804b65c <_ZNKSt6vectorI4taskSaIS0_EE4sizeEv>
 804b5b4:	83 c4 10             	add    $0x10,%esp
 804b5b7:	89 c3                	mov    %eax,%ebx
 804b5b9:	83 ec 0c             	sub    $0xc,%esp
 804b5bc:	ff 75 e4             	pushl  -0x1c(%ebp)
 804b5bf:	e8 98 00 00 00       	call   804b65c <_ZNKSt6vectorI4taskSaIS0_EE4sizeEv>
 804b5c4:	83 c4 10             	add    $0x10,%esp
 804b5c7:	89 45 ec             	mov    %eax,-0x14(%ebp)
 804b5ca:	83 ec 08             	sub    $0x8,%esp
 804b5cd:	8d 45 0c             	lea    0xc(%ebp),%eax
 804b5d0:	50                   	push   %eax
 804b5d1:	8d 45 ec             	lea    -0x14(%ebp),%eax
 804b5d4:	50                   	push   %eax
 804b5d5:	e8 9d 02 00 00       	call   804b877 <_ZSt3maxIjERKT_S2_S2_>
 804b5da:	83 c4 10             	add    $0x10,%esp
 804b5dd:	8b 00                	mov    (%eax),%eax
 804b5df:	01 d8                	add    %ebx,%eax
 804b5e1:	89 45 f0             	mov    %eax,-0x10(%ebp)
 804b5e4:	83 ec 0c             	sub    $0xc,%esp
 804b5e7:	ff 75 e4             	pushl  -0x1c(%ebp)
 804b5ea:	e8 6d 00 00 00       	call   804b65c <_ZNKSt6vectorI4taskSaIS0_EE4sizeEv>
 804b5ef:	83 c4 10             	add    $0x10,%esp
 804b5f2:	3b 45 f0             	cmp    -0x10(%ebp),%eax
 804b5f5:	77 13                	ja     804b60a <_ZNKSt6vectorI4taskSaIS0_EE12_M_check_lenEjPKc+0xb8>
 804b5f7:	83 ec 0c             	sub    $0xc,%esp
 804b5fa:	ff 75 e4             	pushl  -0x1c(%ebp)
 804b5fd:	e8 52 02 00 00       	call   804b854 <_ZNKSt6vectorI4taskSaIS0_EE8max_sizeEv>
 804b602:	83 c4 10             	add    $0x10,%esp
 804b605:	3b 45 f0             	cmp    -0x10(%ebp),%eax
 804b608:	73 10                	jae    804b61a <_ZNKSt6vectorI4taskSaIS0_EE12_M_check_lenEjPKc+0xc8>
 804b60a:	83 ec 0c             	sub    $0xc,%esp
 804b60d:	ff 75 e4             	pushl  -0x1c(%ebp)
 804b610:	e8 3f 02 00 00       	call   804b854 <_ZNKSt6vectorI4taskSaIS0_EE8max_sizeEv>
 804b615:	83 c4 10             	add    $0x10,%esp
 804b618:	eb 03                	jmp    804b61d <_ZNKSt6vectorI4taskSaIS0_EE12_M_check_lenEjPKc+0xcb>
 804b61a:	8b 45 f0             	mov    -0x10(%ebp),%eax
 804b61d:	8b 4d f4             	mov    -0xc(%ebp),%ecx
 804b620:	65 33 0d 14 00 00 00 	xor    %gs:0x14,%ecx
 804b627:	74 05                	je     804b62e <_ZNKSt6vectorI4taskSaIS0_EE12_M_check_lenEjPKc+0xdc>
 804b629:	e8 d2 d1 ff ff       	call   8048800 <__stack_chk_fail@plt>
 804b62e:	8b 5d fc             	mov    -0x4(%ebp),%ebx
 804b631:	c9                   	leave  
 804b632:	c3                   	ret    
 804b633:	90                   	nop

0804b634 <_ZNSt12_Vector_baseI4taskSaIS0_EE11_M_allocateEj>:
 804b634:	55                   	push   %ebp
 804b635:	89 e5                	mov    %esp,%ebp
 804b637:	83 ec 08             	sub    $0x8,%esp
 804b63a:	83 7d 0c 00          	cmpl   $0x0,0xc(%ebp)
 804b63e:	74 14                	je     804b654 <_ZNSt12_Vector_baseI4taskSaIS0_EE11_M_allocateEj+0x20>
 804b640:	8b 45 08             	mov    0x8(%ebp),%eax
 804b643:	83 ec 08             	sub    $0x8,%esp
 804b646:	ff 75 0c             	pushl  0xc(%ebp)
 804b649:	50                   	push   %eax
 804b64a:	e8 43 02 00 00       	call   804b892 <_ZNSt16allocator_traitsISaI4taskEE8allocateERS1_j>
 804b64f:	83 c4 10             	add    $0x10,%esp
 804b652:	eb 05                	jmp    804b659 <_ZNSt12_Vector_baseI4taskSaIS0_EE11_M_allocateEj+0x25>
 804b654:	b8 00 00 00 00       	mov    $0x0,%eax
 804b659:	c9                   	leave  
 804b65a:	c3                   	ret    
 804b65b:	90                   	nop

0804b65c <_ZNKSt6vectorI4taskSaIS0_EE4sizeEv>:
 804b65c:	55                   	push   %ebp
 804b65d:	89 e5                	mov    %esp,%ebp
 804b65f:	8b 45 08             	mov    0x8(%ebp),%eax
 804b662:	8b 40 04             	mov    0x4(%eax),%eax
 804b665:	89 c2                	mov    %eax,%edx
 804b667:	8b 45 08             	mov    0x8(%ebp),%eax
 804b66a:	8b 00                	mov    (%eax),%eax
 804b66c:	29 c2                	sub    %eax,%edx
 804b66e:	89 d0                	mov    %edx,%eax
 804b670:	c1 f8 02             	sar    $0x2,%eax
 804b673:	69 c0 b7 6d db b6    	imul   $0xb6db6db7,%eax,%eax
 804b679:	5d                   	pop    %ebp
 804b67a:	c3                   	ret    

0804b67b <_ZSt34__uninitialized_move_if_noexcept_aIP4taskS1_SaIS0_EET0_T_S4_S3_RT1_>:
 804b67b:	55                   	push   %ebp
 804b67c:	89 e5                	mov    %esp,%ebp
 804b67e:	83 ec 28             	sub    $0x28,%esp
 804b681:	8b 45 08             	mov    0x8(%ebp),%eax
 804b684:	89 45 e4             	mov    %eax,-0x1c(%ebp)
 804b687:	8b 45 0c             	mov    0xc(%ebp),%eax
 804b68a:	89 45 e0             	mov    %eax,-0x20(%ebp)
 804b68d:	8b 45 10             	mov    0x10(%ebp),%eax
 804b690:	89 45 dc             	mov    %eax,-0x24(%ebp)
 804b693:	8b 45 14             	mov    0x14(%ebp),%eax
 804b696:	89 45 d8             	mov    %eax,-0x28(%ebp)
 804b699:	65 a1 14 00 00 00    	mov    %gs:0x14,%eax
 804b69f:	89 45 f4             	mov    %eax,-0xc(%ebp)
 804b6a2:	31 c0                	xor    %eax,%eax
 804b6a4:	8d 45 ec             	lea    -0x14(%ebp),%eax
 804b6a7:	83 ec 08             	sub    $0x8,%esp
 804b6aa:	ff 75 e0             	pushl  -0x20(%ebp)
 804b6ad:	50                   	push   %eax
 804b6ae:	e8 fa 01 00 00       	call   804b8ad <_ZSt32__make_move_if_noexcept_iteratorIP4taskSt13move_iteratorIS1_EET0_T_>
 804b6b3:	83 c4 0c             	add    $0xc,%esp
 804b6b6:	8d 45 f0             	lea    -0x10(%ebp),%eax
 804b6b9:	83 ec 08             	sub    $0x8,%esp
 804b6bc:	ff 75 e4             	pushl  -0x1c(%ebp)
 804b6bf:	50                   	push   %eax
 804b6c0:	e8 e8 01 00 00       	call   804b8ad <_ZSt32__make_move_if_noexcept_iteratorIP4taskSt13move_iteratorIS1_EET0_T_>
 804b6c5:	83 c4 0c             	add    $0xc,%esp
 804b6c8:	ff 75 d8             	pushl  -0x28(%ebp)
 804b6cb:	ff 75 dc             	pushl  -0x24(%ebp)
 804b6ce:	ff 75 ec             	pushl  -0x14(%ebp)
 804b6d1:	ff 75 f0             	pushl  -0x10(%ebp)
 804b6d4:	e8 f2 01 00 00       	call   804b8cb <_ZSt22__uninitialized_copy_aISt13move_iteratorIP4taskES2_S1_ET0_T_S5_S4_RSaIT1_E>
 804b6d9:	83 c4 10             	add    $0x10,%esp
 804b6dc:	8b 55 f4             	mov    -0xc(%ebp),%edx
 804b6df:	65 33 15 14 00 00 00 	xor    %gs:0x14,%edx
 804b6e6:	74 05                	je     804b6ed <_ZSt34__uninitialized_move_if_noexcept_aIP4taskS1_SaIS0_EET0_T_S4_S3_RT1_+0x72>
 804b6e8:	e8 13 d1 ff ff       	call   8048800 <__stack_chk_fail@plt>
 804b6ed:	c9                   	leave  
 804b6ee:	c3                   	ret    
 804b6ef:	90                   	nop

0804b6f0 <_ZNK9__gnu_cxx17__normal_iteratorIP4taskSt6vectorIS1_SaIS1_EEE4baseEv>:
 804b6f0:	55                   	push   %ebp
 804b6f1:	89 e5                	mov    %esp,%ebp
 804b6f3:	8b 45 08             	mov    0x8(%ebp),%eax
 804b6f6:	5d                   	pop    %ebp
 804b6f7:	c3                   	ret    

0804b6f8 <_ZN9__gnu_cxx5__ops14_Iter_comp_valI12compare_taskEC1ES2_>:
 804b6f8:	55                   	push   %ebp
 804b6f9:	89 e5                	mov    %esp,%ebp
 804b6fb:	90                   	nop
 804b6fc:	5d                   	pop    %ebp
 804b6fd:	c3                   	ret    

0804b6fe <_ZN9__gnu_cxx5__ops14_Iter_comp_valI12compare_taskEclINS_17__normal_iteratorIP4taskSt6vectorIS6_SaIS6_EEEES6_EEbT_RT0_>:
 804b6fe:	55                   	push   %ebp
 804b6ff:	89 e5                	mov    %esp,%ebp
 804b701:	83 ec 08             	sub    $0x8,%esp
 804b704:	83 ec 0c             	sub    $0xc,%esp
 804b707:	8d 45 0c             	lea    0xc(%ebp),%eax
 804b70a:	50                   	push   %eax
 804b70b:	e8 6e f6 ff ff       	call   804ad7e <_ZNK9__gnu_cxx17__normal_iteratorIP4taskSt6vectorIS1_SaIS1_EEEdeEv>
 804b710:	83 c4 10             	add    $0x10,%esp
 804b713:	89 c2                	mov    %eax,%edx
 804b715:	8b 45 08             	mov    0x8(%ebp),%eax
 804b718:	83 ec 04             	sub    $0x4,%esp
 804b71b:	ff 75 10             	pushl  0x10(%ebp)
 804b71e:	52                   	push   %edx
 804b71f:	50                   	push   %eax
 804b720:	e8 75 ea ff ff       	call   804a19a <_ZNK12compare_taskclERK4taskS2_>
 804b725:	83 c4 10             	add    $0x10,%esp
 804b728:	c9                   	leave  
 804b729:	c3                   	ret    

0804b72a <_ZN9__gnu_cxx17__normal_iteratorIPK4taskSt6vectorIS1_SaIS1_EEEC1ERKS3_>:
 804b72a:	55                   	push   %ebp
 804b72b:	89 e5                	mov    %esp,%ebp
 804b72d:	8b 45 0c             	mov    0xc(%ebp),%eax
 804b730:	8b 10                	mov    (%eax),%edx
 804b732:	8b 45 08             	mov    0x8(%ebp),%eax
 804b735:	89 10                	mov    %edx,(%eax)
 804b737:	90                   	nop
 804b738:	5d                   	pop    %ebp
 804b739:	c3                   	ret    

0804b73a <_ZN9__gnu_cxx13new_allocatorI4taskE7destroyIS1_EEvPT_>:
 804b73a:	55                   	push   %ebp
 804b73b:	89 e5                	mov    %esp,%ebp
 804b73d:	90                   	nop
 804b73e:	5d                   	pop    %ebp
 804b73f:	c3                   	ret    

0804b740 <_ZNK9__gnu_cxx17__normal_iteratorIPK4taskSt6vectorIS1_SaIS1_EEE4baseEv>:
 804b740:	55                   	push   %ebp
 804b741:	89 e5                	mov    %esp,%ebp
 804b743:	8b 45 08             	mov    0x8(%ebp),%eax
 804b746:	5d                   	pop    %ebp
 804b747:	c3                   	ret    

0804b748 <_ZN9__gnu_cxx13new_allocatorI4taskEC1Ev>:
 804b748:	55                   	push   %ebp
 804b749:	89 e5                	mov    %esp,%ebp
 804b74b:	90                   	nop
 804b74c:	5d                   	pop    %ebp
 804b74d:	c3                   	ret    

0804b74e <_ZN9__gnu_cxx13new_allocatorI4taskE10deallocateEPS1_j>:
 804b74e:	55                   	push   %ebp
 804b74f:	89 e5                	mov    %esp,%ebp
 804b751:	83 ec 08             	sub    $0x8,%esp
 804b754:	83 ec 0c             	sub    $0xc,%esp
 804b757:	ff 75 0c             	pushl  0xc(%ebp)
 804b75a:	e8 11 d0 ff ff       	call   8048770 <_ZdlPv@plt>
 804b75f:	83 c4 10             	add    $0x10,%esp
 804b762:	90                   	nop
 804b763:	c9                   	leave  
 804b764:	c3                   	ret    
 804b765:	90                   	nop

0804b766 <_ZNSaI4taskEC1ERKS0_>:
 804b766:	55                   	push   %ebp
 804b767:	89 e5                	mov    %esp,%ebp
 804b769:	83 ec 08             	sub    $0x8,%esp
 804b76c:	83 ec 08             	sub    $0x8,%esp
 804b76f:	ff 75 0c             	pushl  0xc(%ebp)
 804b772:	ff 75 08             	pushl  0x8(%ebp)
 804b775:	e8 6e 01 00 00       	call   804b8e8 <_ZN9__gnu_cxx13new_allocatorI4taskEC1ERKS2_>
 804b77a:	83 c4 10             	add    $0x10,%esp
 804b77d:	90                   	nop
 804b77e:	c9                   	leave  
 804b77f:	c3                   	ret    

0804b780 <_ZSt4moveIRP4taskEONSt16remove_referenceIT_E4typeEOS4_>:
 804b780:	55                   	push   %ebp
 804b781:	89 e5                	mov    %esp,%ebp
 804b783:	8b 45 08             	mov    0x8(%ebp),%eax
 804b786:	5d                   	pop    %ebp
 804b787:	c3                   	ret    

0804b788 <_ZSt4swapIP4taskEvRT_S3_>:
 804b788:	55                   	push   %ebp
 804b789:	89 e5                	mov    %esp,%ebp
 804b78b:	83 ec 28             	sub    $0x28,%esp
 804b78e:	8b 45 08             	mov    0x8(%ebp),%eax
 804b791:	89 45 e4             	mov    %eax,-0x1c(%ebp)
 804b794:	8b 45 0c             	mov    0xc(%ebp),%eax
 804b797:	89 45 e0             	mov    %eax,-0x20(%ebp)
 804b79a:	65 a1 14 00 00 00    	mov    %gs:0x14,%eax
 804b7a0:	89 45 f4             	mov    %eax,-0xc(%ebp)
 804b7a3:	31 c0                	xor    %eax,%eax
 804b7a5:	83 ec 0c             	sub    $0xc,%esp
 804b7a8:	ff 75 e4             	pushl  -0x1c(%ebp)
 804b7ab:	e8 d0 ff ff ff       	call   804b780 <_ZSt4moveIRP4taskEONSt16remove_referenceIT_E4typeEOS4_>
 804b7b0:	83 c4 10             	add    $0x10,%esp
 804b7b3:	8b 00                	mov    (%eax),%eax
 804b7b5:	89 45 f0             	mov    %eax,-0x10(%ebp)
 804b7b8:	83 ec 0c             	sub    $0xc,%esp
 804b7bb:	ff 75 e0             	pushl  -0x20(%ebp)
 804b7be:	e8 bd ff ff ff       	call   804b780 <_ZSt4moveIRP4taskEONSt16remove_referenceIT_E4typeEOS4_>
 804b7c3:	83 c4 10             	add    $0x10,%esp
 804b7c6:	8b 10                	mov    (%eax),%edx
 804b7c8:	8b 45 e4             	mov    -0x1c(%ebp),%eax
 804b7cb:	89 10                	mov    %edx,(%eax)
 804b7cd:	83 ec 0c             	sub    $0xc,%esp
 804b7d0:	8d 45 f0             	lea    -0x10(%ebp),%eax
 804b7d3:	50                   	push   %eax
 804b7d4:	e8 a7 ff ff ff       	call   804b780 <_ZSt4moveIRP4taskEONSt16remove_referenceIT_E4typeEOS4_>
 804b7d9:	83 c4 10             	add    $0x10,%esp
 804b7dc:	8b 10                	mov    (%eax),%edx
 804b7de:	8b 45 e0             	mov    -0x20(%ebp),%eax
 804b7e1:	89 10                	mov    %edx,(%eax)
 804b7e3:	90                   	nop
 804b7e4:	8b 45 f4             	mov    -0xc(%ebp),%eax
 804b7e7:	65 33 05 14 00 00 00 	xor    %gs:0x14,%eax
 804b7ee:	74 05                	je     804b7f5 <_ZSt4swapIP4taskEvRT_S3_+0x6d>
 804b7f0:	e8 0b d0 ff ff       	call   8048800 <__stack_chk_fail@plt>
 804b7f5:	c9                   	leave  
 804b7f6:	c3                   	ret    
 804b7f7:	90                   	nop

0804b7f8 <_ZN9__gnu_cxx5__ops15_Iter_comp_iterI12compare_taskEclINS_17__normal_iteratorIP4taskSt6vectorIS6_SaIS6_EEEESB_EEbT_T0_>:
 804b7f8:	55                   	push   %ebp
 804b7f9:	89 e5                	mov    %esp,%ebp
 804b7fb:	53                   	push   %ebx
 804b7fc:	83 ec 04             	sub    $0x4,%esp
 804b7ff:	83 ec 0c             	sub    $0xc,%esp
 804b802:	8d 45 10             	lea    0x10(%ebp),%eax
 804b805:	50                   	push   %eax
 804b806:	e8 73 f5 ff ff       	call   804ad7e <_ZNK9__gnu_cxx17__normal_iteratorIP4taskSt6vectorIS1_SaIS1_EEEdeEv>
 804b80b:	83 c4 10             	add    $0x10,%esp
 804b80e:	89 c3                	mov    %eax,%ebx
 804b810:	83 ec 0c             	sub    $0xc,%esp
 804b813:	8d 45 0c             	lea    0xc(%ebp),%eax
 804b816:	50                   	push   %eax
 804b817:	e8 62 f5 ff ff       	call   804ad7e <_ZNK9__gnu_cxx17__normal_iteratorIP4taskSt6vectorIS1_SaIS1_EEEdeEv>
 804b81c:	83 c4 10             	add    $0x10,%esp
 804b81f:	89 c2                	mov    %eax,%edx
 804b821:	8b 45 08             	mov    0x8(%ebp),%eax
 804b824:	83 ec 04             	sub    $0x4,%esp
 804b827:	53                   	push   %ebx
 804b828:	52                   	push   %edx
 804b829:	50                   	push   %eax
 804b82a:	e8 6b e9 ff ff       	call   804a19a <_ZNK12compare_taskclERK4taskS2_>
 804b82f:	83 c4 10             	add    $0x10,%esp
 804b832:	8b 5d fc             	mov    -0x4(%ebp),%ebx
 804b835:	c9                   	leave  
 804b836:	c3                   	ret    

0804b837 <_ZN9__gnu_cxx5__ops15__iter_comp_valI12compare_taskEENS0_14_Iter_comp_valIT_EENS0_15_Iter_comp_iterIS4_EE>:
 804b837:	55                   	push   %ebp
 804b838:	89 e5                	mov    %esp,%ebp
 804b83a:	83 ec 08             	sub    $0x8,%esp
 804b83d:	83 ec 08             	sub    $0x8,%esp
 804b840:	50                   	push   %eax
 804b841:	ff 75 08             	pushl  0x8(%ebp)
 804b844:	e8 af fe ff ff       	call   804b6f8 <_ZN9__gnu_cxx5__ops14_Iter_comp_valI12compare_taskEC1ES2_>
 804b849:	83 c4 10             	add    $0x10,%esp
 804b84c:	8b 45 08             	mov    0x8(%ebp),%eax
 804b84f:	c9                   	leave  
 804b850:	c2 04 00             	ret    $0x4
 804b853:	90                   	nop

0804b854 <_ZNKSt6vectorI4taskSaIS0_EE8max_sizeEv>:
 804b854:	55                   	push   %ebp
 804b855:	89 e5                	mov    %esp,%ebp
 804b857:	83 ec 08             	sub    $0x8,%esp
 804b85a:	8b 45 08             	mov    0x8(%ebp),%eax
 804b85d:	83 ec 0c             	sub    $0xc,%esp
 804b860:	50                   	push   %eax
 804b861:	e8 9e 00 00 00       	call   804b904 <_ZNKSt12_Vector_baseI4taskSaIS0_EE19_M_get_Tp_allocatorEv>
 804b866:	83 c4 10             	add    $0x10,%esp
 804b869:	83 ec 0c             	sub    $0xc,%esp
 804b86c:	50                   	push   %eax
 804b86d:	e8 7c 00 00 00       	call   804b8ee <_ZNSt16allocator_traitsISaI4taskEE8max_sizeERKS1_>
 804b872:	83 c4 10             	add    $0x10,%esp
 804b875:	c9                   	leave  
 804b876:	c3                   	ret    

0804b877 <_ZSt3maxIjERKT_S2_S2_>:
 804b877:	55                   	push   %ebp
 804b878:	89 e5                	mov    %esp,%ebp
 804b87a:	8b 45 08             	mov    0x8(%ebp),%eax
 804b87d:	8b 10                	mov    (%eax),%edx
 804b87f:	8b 45 0c             	mov    0xc(%ebp),%eax
 804b882:	8b 00                	mov    (%eax),%eax
 804b884:	39 c2                	cmp    %eax,%edx
 804b886:	73 05                	jae    804b88d <_ZSt3maxIjERKT_S2_S2_+0x16>
 804b888:	8b 45 0c             	mov    0xc(%ebp),%eax
 804b88b:	eb 03                	jmp    804b890 <_ZSt3maxIjERKT_S2_S2_+0x19>
 804b88d:	8b 45 08             	mov    0x8(%ebp),%eax
 804b890:	5d                   	pop    %ebp
 804b891:	c3                   	ret    

0804b892 <_ZNSt16allocator_traitsISaI4taskEE8allocateERS1_j>:
 804b892:	55                   	push   %ebp
 804b893:	89 e5                	mov    %esp,%ebp
 804b895:	83 ec 08             	sub    $0x8,%esp
 804b898:	83 ec 04             	sub    $0x4,%esp
 804b89b:	6a 00                	push   $0x0
 804b89d:	ff 75 0c             	pushl  0xc(%ebp)
 804b8a0:	ff 75 08             	pushl  0x8(%ebp)
 804b8a3:	e8 64 00 00 00       	call   804b90c <_ZN9__gnu_cxx13new_allocatorI4taskE8allocateEjPKv>
 804b8a8:	83 c4 10             	add    $0x10,%esp
 804b8ab:	c9                   	leave  
 804b8ac:	c3                   	ret    

0804b8ad <_ZSt32__make_move_if_noexcept_iteratorIP4taskSt13move_iteratorIS1_EET0_T_>:
 804b8ad:	55                   	push   %ebp
 804b8ae:	89 e5                	mov    %esp,%ebp
 804b8b0:	83 ec 08             	sub    $0x8,%esp
 804b8b3:	83 ec 08             	sub    $0x8,%esp
 804b8b6:	ff 75 0c             	pushl  0xc(%ebp)
 804b8b9:	ff 75 08             	pushl  0x8(%ebp)
 804b8bc:	e8 8d 00 00 00       	call   804b94e <_ZNSt13move_iteratorIP4taskEC1ES1_>
 804b8c1:	83 c4 10             	add    $0x10,%esp
 804b8c4:	8b 45 08             	mov    0x8(%ebp),%eax
 804b8c7:	c9                   	leave  
 804b8c8:	c2 04 00             	ret    $0x4

0804b8cb <_ZSt22__uninitialized_copy_aISt13move_iteratorIP4taskES2_S1_ET0_T_S5_S4_RSaIT1_E>:
 804b8cb:	55                   	push   %ebp
 804b8cc:	89 e5                	mov    %esp,%ebp
 804b8ce:	83 ec 08             	sub    $0x8,%esp
 804b8d1:	83 ec 04             	sub    $0x4,%esp
 804b8d4:	ff 75 10             	pushl  0x10(%ebp)
 804b8d7:	ff 75 0c             	pushl  0xc(%ebp)
 804b8da:	ff 75 08             	pushl  0x8(%ebp)
 804b8dd:	e8 7a 00 00 00       	call   804b95c <_ZSt18uninitialized_copyISt13move_iteratorIP4taskES2_ET0_T_S5_S4_>
 804b8e2:	83 c4 10             	add    $0x10,%esp
 804b8e5:	c9                   	leave  
 804b8e6:	c3                   	ret    
 804b8e7:	90                   	nop

0804b8e8 <_ZN9__gnu_cxx13new_allocatorI4taskEC1ERKS2_>:
 804b8e8:	55                   	push   %ebp
 804b8e9:	89 e5                	mov    %esp,%ebp
 804b8eb:	90                   	nop
 804b8ec:	5d                   	pop    %ebp
 804b8ed:	c3                   	ret    

0804b8ee <_ZNSt16allocator_traitsISaI4taskEE8max_sizeERKS1_>:
 804b8ee:	55                   	push   %ebp
 804b8ef:	89 e5                	mov    %esp,%ebp
